ccopy_reg
_reconstructor
p0
(cnltk.classify.naivebayes
NaiveBayesClassifier
p1
c__builtin__
object
p2
Ntp3
Rp4
(dp5
S'_labels'
p6
(lp7
S'1'
p8
aS'0'
p9
asS'_feature_probdist'
p10
(dp11
(g9
S'i'
p12
tp13
g0
(cnltk.probability
ELEProbDist
p14
g2
Ntp15
Rp16
(dp17
S'_gamma'
p18
F0.5
sS'_N'
p19
I1422
sS'_freqdist'
p20
g0
(cnltk.probability
FreqDist
p21
c__builtin__
dict
p22
(dp23
I0
I1323
sI1
I99
stp24
Rp25
(dp26
g19
I1422
sS'_max_cache'
p27
NsS'_item_cache'
p28
NsS'_Nr_cache'
p29
NsbsS'_bins'
p30
I3
sS'_divisor'
p31
F1423.5
sbs(g9
S'\xcd\xac\xd1\xa7'
p32
tp33
g0
(g14
g2
Ntp34
Rp35
(dp36
g18
F0.5
sg19
I1422
sg20
g0
(g21
g22
(dp37
I0
I1319
sI1
I103
stp38
Rp39
(dp40
g19
I1422
sg27
Nsg28
Nsg29
Nsbsg30
I3
sg31
F1423.5
sbs(g9
S'\xc1\xcb\xbd\xe2'
p41
tp42
g0
(g14
g2
Ntp43
Rp44
(dp45
g18
F0.5
sg19
I1422
sg20
g0
(g21
g22
(dp46
I0
I1332
sI1
I90
stp47
Rp48
(dp49
g19
I1422
sg27
Nsg28
Nsg29
Nsbsg30
I3
sg31
F1423.5
sbs(g8
S'\xb4\xf2\xcb\xe3'
p50
tp51
g0
(g14
g2
Ntp52
Rp53
(dp54
g18
F0.5
sg19
I24337
sg20
g0
(g21
g22
(dp55
I0
I22011
sI1
I2326
stp56
Rp57
(dp58
g19
I24337
sg27
Nsg28
Nsg29
Nsbsg30
I3
sg31
F24338.5
sbs(g8
S'\xd2\xbb\xd0\xa9'
p59
tp60
g0
(g14
g2
Ntp61
Rp62
(dp63
g18
F0.5
sg19
I24337
sg20
g0
(g21
g22
(dp64
I0
I22204
sI1
I2133
stp65
Rp66
(dp67
g19
I24337
sg27
Nsg28
Nsg29
Nsbsg30
I3
sg31
F24338.5
sbs(g9
S'\xd1\xa7\xd0\xa3'
p68
tp69
g0
(g14
g2
Ntp70
Rp71
(dp72
g18
F0.5
sg19
I1422
sg20
g0
(g21
g22
(dp73
I0
I1326
sI1
I96
stp74
Rp75
(dp76
g19
I1422
sg27
Nsg28
Nsg29
Nsbsg30
I3
sg31
F1423.5
sbs(g9
S'\xb6\xab\xce\xf7'
p77
tp78
g0
(g14
g2
Ntp79
Rp80
(dp81
g18
F0.5
sg19
I1422
sg20
g0
(g21
g22
(dp82
I0
I1389
sI1
I33
stp83
Rp84
(dp85
g19
I1422
sg27
Nsg28
Nsg29
Nsbsg30
I3
sg31
F1423.5
sbs(g8
S'\xbf\xb4\xb5\xbd'
p86
tp87
g0
(g14
g2
Ntp88
Rp89
(dp90
g18
F0.5
sg19
I24337
sg20
g0
(g21
g22
(dp91
I0
I22306
sI1
I2031
stp92
Rp93
(dp94
g19
I24337
sg27
Nsg28
Nsg29
Nsbsg30
I3
sg31
F24338.5
sbs(g9
S'\xc4\xea'
p95
tp96
g0
(g14
g2
Ntp97
Rp98
(dp99
g18
F0.5
sg19
I1422
sg20
g0
(g21
g22
(dp100
I0
I1343
sI1
I79
stp101
Rp102
(dp103
g19
I1422
sg27
Nsg28
Nsg29
Nsbsg30
I3
sg31
F1423.5
sbs(g8
S'\xbf\xb4'
p104
tp105
g0
(g14
g2
Ntp106
Rp107
(dp108
g18
F0.5
sg19
I24337
sg20
g0
(g21
g22
(dp109
I0
I22987
sI1
I1350
stp110
Rp111
(dp112
g19
I24337
sg27
Nsg28
Nsg29
Nsbsg30
I3
sg31
F24338.5
sbs(g9
S'13fall'
p113
tp114
g0
(g14
g2
Ntp115
Rp116
(dp117
g18
F0.5
sg19
I1422
sg20
g0
(g21
g22
(dp118
I0
I1379
sI1
I43
stp119
Rp120
(dp121
g19
I1422
sg27
Nsg28
Nsg29
Nsbsg30
I3
sg31
F1423.5
sbs(g8
S'\xa1\xa3'
p122
tp123
g0
(g14
g2
Ntp124
Rp125
(dp126
g18
F0.5
sg19
I24337
sg20
g0
(g21
g22
(dp127
I0
I9704
sI1
I14633
stp128
Rp129
(dp130
g19
I24337
sg27
Nsg28
Nsg29
Nsbsg30
I3
sg31
F24338.5
sbs(g9
S'\xbe\xcd\xd2\xb5'
p131
tp132
g0
(g14
g2
Ntp133
Rp134
(dp135
g18
F0.5
sg19
I1422
sg20
g0
(g21
g22
(dp136
I0
I1380
sI1
I42
stp137
Rp138
(dp139
g19
I1422
sg27
Nsg28
Nsg29
Nsbsg30
I3
sg31
F1423.5
sbs(g9
S'\xce\xd2'
p140
tp141
g0
(g14
g2
Ntp142
Rp143
(dp144
g18
F0.5
sg19
I1422
sg20
g0
(g21
g22
(dp145
I0
I683
sI1
I739
stp146
Rp147
(dp148
g19
I1422
sg27
Nsg28
Nsg29
Nsbsg30
I3
sg31
F1423.5
sbs(g9
S'\xc3\xbb\xd3\xd0'
p149
tp150
g0
(g14
g2
Ntp151
Rp152
(dp153
g18
F0.5
sg19
I1422
sg20
g0
(g21
g22
(dp154
I0
I1373
sI1
I49
stp155
Rp156
(dp157
g19
I1422
sg27
Nsg28
Nsg29
Nsbsg30
I3
sg31
F1423.5
sbs(g9
S'\xd5\xe2\xc0\xef'
p158
tp159
g0
(g14
g2
Ntp160
Rp161
(dp162
g18
F0.5
sg19
I1422
sg20
g0
(g21
g22
(dp163
I0
I1282
sI1
I140
stp164
Rp165
(dp166
g19
I1422
sg27
Nsg28
Nsg29
Nsbsg30
I3
sg31
F1423.5
sbs(g9
S'\xd3\xc9'
p167
tp168
g0
(g14
g2
Ntp169
Rp170
(dp171
g18
F0.5
sg19
I1422
sg20
g0
(g21
g22
(dp172
I0
I1352
sI1
I70
stp173
Rp174
(dp175
g19
I1422
sg27
Nsg28
Nsg29
Nsbsg30
I3
sg31
F1423.5
sbs(g8
S'goto'
p176
tp177
g0
(g14
g2
Ntp178
Rp179
(dp180
g18
F0.5
sg19
I24337
sg20
g0
(g21
g22
(dp181
I0
I24245
sI1
I92
stp182
Rp183
(dp184
g19
I24337
sg27
Nsg28
Nsg29
Nsbsg30
I3
sg31
F24338.5
sbs(g8
S'\xb9\xa4\xd7\xf7'
p185
tp186
g0
(g14
g2
Ntp187
Rp188
(dp189
g18
F0.5
sg19
I24337
sg20
g0
(g21
g22
(dp190
I0
I20568
sI1
I3769
stp191
Rp192
(dp193
g19
I24337
sg27
Nsg28
Nsg29
Nsbsg30
I3
sg31
F24338.5
sbs(g8
S'\xb5\xbd'
p194
tp195
g0
(g14
g2
Ntp196
Rp197
(dp198
g18
F0.5
sg19
I24337
sg20
g0
(g21
g22
(dp199
I0
I21130
sI1
I3207
stp200
Rp201
(dp202
g19
I24337
sg27
Nsg28
Nsg29
Nsbsg30
I3
sg31
F24338.5
sbs(g9
S'\xb4\xf3\xc8\xfd'
p203
tp204
g0
(g14
g2
Ntp205
Rp206
(dp207
g18
F0.5
sg19
I1422
sg20
g0
(g21
g22
(dp208
I0
I1356
sI1
I66
stp209
Rp210
(dp211
g19
I1422
sg27
Nsg28
Nsg29
Nsbsg30
I3
sg31
F1423.5
sbs(g9
S'blog'
p212
tp213
g0
(g14
g2
Ntp214
Rp215
(dp216
g18
F0.5
sg19
I1422
sg20
g0
(g21
g22
(dp217
I0
I1345
sI1
I77
stp218
Rp219
(dp220
g19
I1422
sg27
Nsg28
Nsg29
Nsbsg30
I3
sg31
F1423.5
sbs(g8
S'\xd7\xf6'
p221
tp222
g0
(g14
g2
Ntp223
Rp224
(dp225
g18
F0.5
sg19
I24337
sg20
g0
(g21
g22
(dp226
I0
I23051
sI1
I1286
stp227
Rp228
(dp229
g19
I24337
sg27
Nsg28
Nsg29
Nsbsg30
I3
sg31
F24338.5
sbs(g8
S'\xd7\xee\xba\xf3'
p230
tp231
g0
(g14
g2
Ntp232
Rp233
(dp234
g18
F0.5
sg19
I24337
sg20
g0
(g21
g22
(dp235
I0
I23107
sI1
I1230
stp236
Rp237
(dp238
g19
I24337
sg27
Nsg28
Nsg29
Nsbsg30
I3
sg31
F24338.5
sbs(g8
S'\xd5\xfd\xd4\xda'
p239
tp240
g0
(g14
g2
Ntp241
Rp242
(dp243
g18
F0.5
sg19
I24337
sg20
g0
(g21
g22
(dp244
I0
I22288
sI1
I2049
stp245
Rp246
(dp247
g19
I24337
sg27
Nsg28
Nsg29
Nsbsg30
I3
sg31
F24338.5
sbs(g8
S'\xc8\xfd\xb7\xd6'
p248
tp249
g0
(g14
g2
Ntp250
Rp251
(dp252
g18
F0.5
sg19
I24337
sg20
g0
(g21
g22
(dp253
I0
I20176
sI1
I4161
stp254
Rp255
(dp256
g19
I24337
sg27
Nsg28
Nsg29
Nsbsg30
I3
sg31
F24338.5
sbs(g8
S'\xbe\xcd\xca\xc7'
p257
tp258
g0
(g14
g2
Ntp259
Rp260
(dp261
g18
F0.5
sg19
I24337
sg20
g0
(g21
g22
(dp262
I0
I23629
sI1
I708
stp263
Rp264
(dp265
g19
I24337
sg27
Nsg28
Nsg29
Nsbsg30
I3
sg31
F24338.5
sbs(g8
S'\xc9\xea\xc7\xeb'
p266
tp267
g0
(g14
g2
Ntp268
Rp269
(dp270
g18
F0.5
sg19
I24337
sg20
g0
(g21
g22
(dp271
I0
I10504
sI1
I13833
stp272
Rp273
(dp274
g19
I24337
sg27
Nsg28
Nsg29
Nsbsg30
I3
sg31
F24338.5
sbs(g8
S'\xb2\xc5'
p275
tp276
g0
(g14
g2
Ntp277
Rp278
(dp279
g18
F0.5
sg19
I24337
sg20
g0
(g21
g22
(dp280
I0
I23589
sI1
I748
stp281
Rp282
(dp283
g19
I24337
sg27
Nsg28
Nsg29
Nsbsg30
I3
sg31
F24338.5
sbs(g9
S'\xba\xdc'
p284
tp285
g0
(g14
g2
Ntp286
Rp287
(dp288
g18
F0.5
sg19
I1422
sg20
g0
(g21
g22
(dp289
I0
I1290
sI1
I132
stp290
Rp291
(dp292
g19
I1422
sg27
Nsg28
Nsg29
Nsbsg30
I3
sg31
F1423.5
sbs(g9
S':'
p293
tp294
g0
(g14
g2
Ntp295
Rp296
(dp297
g18
F0.5
sg19
I1422
sg20
g0
(g21
g22
(dp298
I0
I1242
sI1
I180
stp299
Rp300
(dp301
g19
I1422
sg27
Nsg28
Nsg29
Nsbsg30
I3
sg31
F1423.5
sbs(g9
S'\xb4\xf2\xcb\xe3'
p302
tp303
g0
(g14
g2
Ntp304
Rp305
(dp306
g18
F0.5
sg19
I1422
sg20
g0
(g21
g22
(dp307
I0
I1353
sI1
I69
stp308
Rp309
(dp310
g19
I1422
sg27
Nsg28
Nsg29
Nsbsg30
I3
sg31
F1423.5
sbs(g9
S'\xd2\xbb\xd0\xa9'
p311
tp312
g0
(g14
g2
Ntp313
Rp314
(dp315
g18
F0.5
sg19
I1422
sg20
g0
(g21
g22
(dp316
I0
I1369
sI1
I53
stp317
Rp318
(dp319
g19
I1422
sg27
Nsg28
Nsg29
Nsbsg30
I3
sg31
F1423.5
sbs(g8
S'http'
p320
tp321
g0
(g14
g2
Ntp322
Rp323
(dp324
g18
F0.5
sg19
I24337
sg20
g0
(g21
g22
(dp325
I0
I24195
sI1
I142
stp326
Rp327
(dp328
g19
I24337
sg27
Nsg28
Nsg29
Nsbsg30
I3
sg31
F24338.5
sbs(g8
S'\xc1\xcb\xbd\xe2'
p329
tp330
g0
(g14
g2
Ntp331
Rp332
(dp333
g18
F0.5
sg19
I24337
sg20
g0
(g21
g22
(dp334
I0
I21156
sI1
I3181
stp335
Rp336
(dp337
g19
I24337
sg27
Nsg28
Nsg29
Nsbsg30
I3
sg31
F24338.5
sbs(g8
S'\xd1\xa7\xd0\xa3'
p338
tp339
g0
(g14
g2
Ntp340
Rp341
(dp342
g18
F0.5
sg19
I24337
sg20
g0
(g21
g22
(dp343
I0
I21044
sI1
I3293
stp344
Rp345
(dp346
g19
I24337
sg27
Nsg28
Nsg29
Nsbsg30
I3
sg31
F24338.5
sbs(g9
S'2013'
p347
tp348
g0
(g14
g2
Ntp349
Rp350
(dp351
g18
F0.5
sg19
I1422
sg20
g0
(g21
g22
(dp352
I0
I1308
sI1
I114
stp353
Rp354
(dp355
g19
I1422
sg27
Nsg28
Nsg29
Nsbsg30
I3
sg31
F1423.5
sbs(g9
S'\xc8\xe7\xba\xce'
p356
tp357
g0
(g14
g2
Ntp358
Rp359
(dp360
g18
F0.5
sg19
I1422
sg20
g0
(g21
g22
(dp361
I0
I1386
sI1
I36
stp362
Rp363
(dp364
g19
I1422
sg27
Nsg28
Nsg29
Nsbsg30
I3
sg31
F1423.5
sbs(g8
S'\xb9\xfa\xc4\xda'
p365
tp366
g0
(g14
g2
Ntp367
Rp368
(dp369
g18
F0.5
sg19
I24337
sg20
g0
(g21
g22
(dp370
I0
I22367
sI1
I1970
stp371
Rp372
(dp373
g19
I24337
sg27
Nsg28
Nsg29
Nsbsg30
I3
sg31
F24338.5
sbs(g9
S'\xbb\xb6\xd3\xad'
p374
tp375
g0
(g14
g2
Ntp376
Rp377
(dp378
g18
F0.5
sg19
I1422
sg20
g0
(g21
g22
(dp379
I0
I1381
sI1
I41
stp380
Rp381
(dp382
g19
I1422
sg27
Nsg28
Nsg29
Nsbsg30
I3
sg31
F1423.5
sbs(g9
S'\xb2\xbb'
p383
tp384
g0
(g14
g2
Ntp385
Rp386
(dp387
g18
F0.5
sg19
I1422
sg20
g0
(g21
g22
(dp388
I0
I1354
sI1
I68
stp389
Rp390
(dp391
g19
I1422
sg27
Nsg28
Nsg29
Nsbsg30
I3
sg31
F1423.5
sbs(g9
S'\xd2\xbb\xc4\xb6'
p392
tp393
g0
(g14
g2
Ntp394
Rp395
(dp396
g18
F0.5
sg19
I1422
sg20
g0
(g21
g22
(dp397
I0
I1279
sI1
I143
stp398
Rp399
(dp400
g19
I1422
sg27
Nsg28
Nsg29
Nsbsg30
I3
sg31
F1423.5
sbs(g8
S'\xca\xb1\xba\xf2'
p401
tp402
g0
(g14
g2
Ntp403
Rp404
(dp405
g18
F0.5
sg19
I24337
sg20
g0
(g21
g22
(dp406
I0
I23153
sI1
I1184
stp407
Rp408
(dp409
g19
I24337
sg27
Nsg28
Nsg29
Nsbsg30
I3
sg31
F24338.5
sbs(g8
S'\xb7\xbd\xcf\xf2'
p410
tp411
g0
(g14
g2
Ntp412
Rp413
(dp414
g18
F0.5
sg19
I24337
sg20
g0
(g21
g22
(dp415
I0
I20324
sI1
I4013
stp416
Rp417
(dp418
g19
I24337
sg27
Nsg28
Nsg29
Nsbsg30
I3
sg31
F24338.5
sbs(g9
S'phd'
p419
tp420
g0
(g14
g2
Ntp421
Rp422
(dp423
g18
F0.5
sg19
I1422
sg20
g0
(g21
g22
(dp424
I0
I1288
sI1
I134
stp425
Rp426
(dp427
g19
I1422
sg27
Nsg28
Nsg29
Nsbsg30
I3
sg31
F1423.5
sbs(g9
S'\xb4\xf3\xcb\xc4'
p428
tp429
g0
(g14
g2
Ntp430
Rp431
(dp432
g18
F0.5
sg19
I1422
sg20
g0
(g21
g22
(dp433
I0
I1299
sI1
I123
stp434
Rp435
(dp436
g19
I1422
sg27
Nsg28
Nsg29
Nsbsg30
I3
sg31
F1423.5
sbs(g8
S'\xc2\xdb\xcc\xb3'
p437
tp438
g0
(g14
g2
Ntp439
Rp440
(dp441
g18
F0.5
sg19
I24337
sg20
g0
(g21
g22
(dp442
I0
I17100
sI1
I7237
stp443
Rp444
(dp445
g19
I24337
sg27
Nsg28
Nsg29
Nsbsg30
I3
sg31
F24338.5
sbs(g9
S'\xb0\xa1'
p446
tp447
g0
(g14
g2
Ntp448
Rp449
(dp450
g18
F0.5
sg19
I1422
sg20
g0
(g21
g22
(dp451
I0
I1289
sI1
I133
stp452
Rp453
(dp454
g19
I1422
sg27
Nsg28
Nsg29
Nsbsg30
I3
sg31
F1423.5
sbs(g9
S'\xd7\xee\xba\xf3'
p455
tp456
g0
(g14
g2
Ntp457
Rp458
(dp459
g18
F0.5
sg19
I1422
sg20
g0
(g21
g22
(dp460
I0
I1341
sI1
I81
stp461
Rp462
(dp463
g19
I1422
sg27
Nsg28
Nsg29
Nsbsg30
I3
sg31
F1423.5
sbs(g9
S'findpost'
p464
tp465
g0
(g14
g2
Ntp466
Rp467
(dp468
g18
F0.5
sg19
I1422
sg20
g0
(g21
g22
(dp469
I0
I1408
sI1
I14
stp470
Rp471
(dp472
g19
I1422
sg27
Nsg28
Nsg29
Nsbsg30
I3
sg31
F1423.5
sbs(g9
S'\xa3\xac'
p473
tp474
g0
(g14
g2
Ntp475
Rp476
(dp477
g18
F0.5
sg19
I1422
sg20
g0
(g21
g22
(dp478
I0
I525
sI1
I897
stp479
Rp480
(dp481
g19
I1422
sg27
Nsg28
Nsg29
Nsbsg30
I3
sg31
F1423.5
sbs(g8
S'\xb1\xc8\xbd\xcf'
p482
tp483
g0
(g14
g2
Ntp484
Rp485
(dp486
g18
F0.5
sg19
I24337
sg20
g0
(g21
g22
(dp487
I0
I23178
sI1
I1159
stp488
Rp489
(dp490
g19
I24337
sg27
Nsg28
Nsg29
Nsbsg30
I3
sg31
F24338.5
sbs(g8
S'\xcb\xf9\xd2\xd4'
p491
tp492
g0
(g14
g2
Ntp493
Rp494
(dp495
g18
F0.5
sg19
I24337
sg20
g0
(g21
g22
(dp496
I0
I22323
sI1
I2014
stp497
Rp498
(dp499
g19
I24337
sg27
Nsg28
Nsg29
Nsbsg30
I3
sg31
F24338.5
sbs(g8
S'ms'
p500
tp501
g0
(g14
g2
Ntp502
Rp503
(dp504
g18
F0.5
sg19
I24337
sg20
g0
(g21
g22
(dp505
I0
I22131
sI1
I2206
stp506
Rp507
(dp508
g19
I24337
sg27
Nsg28
Nsg29
Nsbsg30
I3
sg31
F24338.5
sbs(g9
S'\xd4\xf5\xc3\xb4'
p509
tp510
g0
(g14
g2
Ntp511
Rp512
(dp513
g18
F0.5
sg19
I1422
sg20
g0
(g21
g22
(dp514
I0
I1383
sI1
I39
stp515
Rp516
(dp517
g19
I1422
sg27
Nsg28
Nsg29
Nsbsg30
I3
sg31
F1423.5
sbs(g8
S'master'
p518
tp519
g0
(g14
g2
Ntp520
Rp521
(dp522
g18
F0.5
sg19
I24337
sg20
g0
(g21
g22
(dp523
I0
I20744
sI1
I3593
stp524
Rp525
(dp526
g19
I24337
sg27
Nsg28
Nsg29
Nsbsg30
I3
sg31
F24338.5
sbs(g8
S'\xd7\xa8\xd2\xb5'
p527
tp528
g0
(g14
g2
Ntp529
Rp530
(dp531
g18
F0.5
sg19
I24337
sg20
g0
(g21
g22
(dp532
I0
I11600
sI1
I12737
stp533
Rp534
(dp535
g19
I24337
sg27
Nsg28
Nsg29
Nsbsg30
I3
sg31
F24338.5
sbs(g9
S'.'
p536
tp537
g0
(g14
g2
Ntp538
Rp539
(dp540
g18
F0.5
sg19
I1422
sg20
g0
(g21
g22
(dp541
I0
I1308
sI1
I114
stp542
Rp543
(dp544
g19
I1422
sg27
Nsg28
Nsg29
Nsbsg30
I3
sg31
F1423.5
sbs(g8
S'\xc8\xcb'
p545
tp546
g0
(g14
g2
Ntp547
Rp548
(dp549
g18
F0.5
sg19
I24337
sg20
g0
(g21
g22
(dp550
I0
I23252
sI1
I1085
stp551
Rp552
(dp553
g19
I24337
sg27
Nsg28
Nsg29
Nsbsg30
I3
sg31
F24338.5
sbs(g8
S'\xb7\xd6'
p554
tp555
g0
(g14
g2
Ntp556
Rp557
(dp558
g18
F0.5
sg19
I24337
sg20
g0
(g21
g22
(dp559
I0
I24088
sI1
I249
stp560
Rp561
(dp562
g19
I24337
sg27
Nsg28
Nsg29
Nsbsg30
I3
sg31
F24338.5
sbs(g8
S'\xc8\xe7\xba\xce'
p563
tp564
g0
(g14
g2
Ntp565
Rp566
(dp567
g18
F0.5
sg19
I24337
sg20
g0
(g21
g22
(dp568
I0
I23758
sI1
I579
stp569
Rp570
(dp571
g19
I24337
sg27
Nsg28
Nsg29
Nsbsg30
I3
sg31
F24338.5
sbs(g8
S'\xa3\xa8'
p572
tp573
g0
(g14
g2
Ntp574
Rp575
(dp576
g18
F0.5
sg19
I24337
sg20
g0
(g21
g22
(dp577
I0
I22662
sI1
I1675
stp578
Rp579
(dp580
g19
I24337
sg27
Nsg28
Nsg29
Nsbsg30
I3
sg31
F24338.5
sbs(g8
S'\xd2\xd1\xbe\xad'
p581
tp582
g0
(g14
g2
Ntp583
Rp584
(dp585
g18
F0.5
sg19
I24337
sg20
g0
(g21
g22
(dp586
I0
I22739
sI1
I1598
stp587
Rp588
(dp589
g19
I24337
sg27
Nsg28
Nsg29
Nsbsg30
I3
sg31
F24338.5
sbs(g8
S'\xb3\xf6\xb9\xfa'
p590
tp591
g0
(g14
g2
Ntp592
Rp593
(dp594
g18
F0.5
sg19
I24337
sg20
g0
(g21
g22
(dp595
I0
I22834
sI1
I1503
stp596
Rp597
(dp598
g19
I24337
sg27
Nsg28
Nsg29
Nsbsg30
I3
sg31
F24338.5
sbs(g9
S'\xd7\xbc\xb1\xb8'
p599
tp600
g0
(g14
g2
Ntp601
Rp602
(dp603
g18
F0.5
sg19
I1422
sg20
g0
(g21
g22
(dp604
I0
I1251
sI1
I171
stp605
Rp606
(dp607
g19
I1422
sg27
Nsg28
Nsg29
Nsbsg30
I3
sg31
F1423.5
sbs(g8
S'\xd2\xb2'
p608
tp609
g0
(g14
g2
Ntp610
Rp611
(dp612
g18
F0.5
sg19
I24337
sg20
g0
(g21
g22
(dp613
I0
I21057
sI1
I3280
stp614
Rp615
(dp616
g19
I24337
sg27
Nsg28
Nsg29
Nsbsg30
I3
sg31
F24338.5
sbs(g8
S'cs'
p617
tp618
g0
(g14
g2
Ntp619
Rp620
(dp621
g18
F0.5
sg19
I24337
sg20
g0
(g21
g22
(dp622
I0
I19556
sI1
I4781
stp623
Rp624
(dp625
g19
I24337
sg27
Nsg28
Nsg29
Nsbsg30
I3
sg31
F24338.5
sbs(g9
S'\xcf\xa3\xcd\xfb'
p626
tp627
g0
(g14
g2
Ntp628
Rp629
(dp630
g18
F0.5
sg19
I1422
sg20
g0
(g21
g22
(dp631
I0
I1099
sI1
I323
stp632
Rp633
(dp634
g19
I1422
sg27
Nsg28
Nsg29
Nsbsg30
I3
sg31
F1423.5
sbs(g9
S'\xb5\xab\xca\xc7'
p635
tp636
g0
(g14
g2
Ntp637
Rp638
(dp639
g18
F0.5
sg19
I1422
sg20
g0
(g21
g22
(dp640
I0
I1371
sI1
I51
stp641
Rp642
(dp643
g19
I1422
sg27
Nsg28
Nsg29
Nsbsg30
I3
sg31
F1423.5
sbs(g8
S'\xd2\xbb\xc6\xf0'
p644
tp645
g0
(g14
g2
Ntp646
Rp647
(dp648
g18
F0.5
sg19
I24337
sg20
g0
(g21
g22
(dp649
I0
I23101
sI1
I1236
stp650
Rp651
(dp652
g19
I24337
sg27
Nsg28
Nsg29
Nsbsg30
I3
sg31
F24338.5
sbs(g9
S'#'
p653
tp654
g0
(g14
g2
Ntp655
Rp656
(dp657
g18
F0.5
sg19
I1422
sg20
g0
(g21
g22
(dp658
I0
I1405
sI1
I17
stp659
Rp660
(dp661
g19
I1422
sg27
Nsg28
Nsg29
Nsbsg30
I3
sg31
F1423.5
sbs(g9
S'\xc4\xd8'
p662
tp663
g0
(g14
g2
Ntp664
Rp665
(dp666
g18
F0.5
sg19
I1422
sg20
g0
(g21
g22
(dp667
I0
I1393
sI1
I29
stp668
Rp669
(dp670
g19
I1422
sg27
Nsg28
Nsg29
Nsbsg30
I3
sg31
F1423.5
sbs(g8
S'\xbb\xfd\xb7\xd6'
p671
tp672
g0
(g14
g2
Ntp673
Rp674
(dp675
g18
F0.5
sg19
I24337
sg20
g0
(g21
g22
(dp676
I0
I23775
sI1
I562
stp677
Rp678
(dp679
g19
I24337
sg27
Nsg28
Nsg29
Nsbsg30
I3
sg31
F24338.5
sbs(g8
S'\xc1\xcb'
p680
tp681
g0
(g14
g2
Ntp682
Rp683
(dp684
g18
F0.5
sg19
I24337
sg20
g0
(g21
g22
(dp685
I0
I16223
sI1
I8114
stp686
Rp687
(dp688
g19
I24337
sg27
Nsg28
Nsg29
Nsbsg30
I3
sg31
F24338.5
sbs(g9
S'\xbd\xbb\xc1\xf7'
p689
tp690
g0
(g14
g2
Ntp691
Rp692
(dp693
g18
F0.5
sg19
I1422
sg20
g0
(g21
g22
(dp694
I0
I1331
sI1
I91
stp695
Rp696
(dp697
g19
I1422
sg27
Nsg28
Nsg29
Nsbsg30
I3
sg31
F1423.5
sbs(g9
S'\xca\xc7\xb4\xd3'
p698
tp699
g0
(g14
g2
Ntp700
Rp701
(dp702
g18
F0.5
sg19
I1422
sg20
g0
(g21
g22
(dp703
I0
I1354
sI1
I68
stp704
Rp705
(dp706
g19
I1422
sg27
Nsg28
Nsg29
Nsbsg30
I3
sg31
F1423.5
sbs(g9
S'warald'
p707
tp708
g0
(g14
g2
Ntp709
Rp710
(dp711
g18
F0.5
sg19
I1422
sg20
g0
(g21
g22
(dp712
I0
I1297
sI1
I125
stp713
Rp714
(dp715
g19
I1422
sg27
Nsg28
Nsg29
Nsbsg30
I3
sg31
F1423.5
sbs(g8
S'phd'
p716
tp717
g0
(g14
g2
Ntp718
Rp719
(dp720
g18
F0.5
sg19
I24337
sg20
g0
(g21
g22
(dp721
I0
I20191
sI1
I4146
stp722
Rp723
(dp724
g19
I24337
sg27
Nsg28
Nsg29
Nsbsg30
I3
sg31
F24338.5
sbs(g8
S'\xb9\xfd'
p725
tp726
g0
(g14
g2
Ntp727
Rp728
(dp729
g18
F0.5
sg19
I24337
sg20
g0
(g21
g22
(dp730
I0
I23528
sI1
I809
stp731
Rp732
(dp733
g19
I24337
sg27
Nsg28
Nsg29
Nsbsg30
I3
sg31
F24338.5
sbs(g9
S'\xbe\xad\xd1\xe9'
p734
tp735
g0
(g14
g2
Ntp736
Rp737
(dp738
g18
F0.5
sg19
I1422
sg20
g0
(g21
g22
(dp739
I0
I1356
sI1
I66
stp740
Rp741
(dp742
g19
I1422
sg27
Nsg28
Nsg29
Nsbsg30
I3
sg31
F1423.5
sbs(g8
S'reply_length'
p743
tp744
g0
(g14
g2
Ntp745
Rp746
(dp747
g18
F0.5
sg19
I24337
sg20
g0
(g21
g22
(dp748
S'344'
p749
I30
sS'345'
p750
I28
sS'346'
p751
I25
sS'347'
p752
I26
sS'340'
p753
I35
sS'341'
p754
I23
sS'342'
p755
I33
sS'343'
p756
I28
sS'348'
p757
I26
sS'349'
p758
I20
sS'1158'
p759
I2
sS'298'
p760
I46
sS'299'
p761
I47
sS'296'
p762
I46
sS'297'
p763
I42
sS'294'
p764
I49
sS'295'
p765
I46
sS'292'
p766
I20
sS'293'
p767
I51
sS'290'
p768
I39
sS'291'
p769
I54
sS'199'
p770
I68
sS'198'
p771
I94
sS'195'
p772
I101
sS'194'
p773
I93
sS'197'
p774
I86
sS'196'
p775
I91
sS'191'
p776
I88
sS'190'
p777
I102
sS'193'
p778
I86
sS'192'
p779
I96
sS'270'
p780
I49
sS'271'
p781
I64
sS'272'
p782
I45
sS'273'
p783
I59
sS'274'
p784
I34
sS'275'
p785
I49
sS'276'
p786
I49
sS'277'
p787
I48
sS'278'
p788
I51
sS'279'
p789
I42
sS'108'
p790
I98
sS'109'
p791
I99
sS'102'
p792
I74
sS'103'
p793
I81
sS'100'
p794
I85
sS'101'
p795
I84
sS'106'
p796
I88
sS'107'
p797
I87
sS'104'
p798
I93
sS'105'
p799
I98
sS'902'
p800
I1
sS'903'
p801
I2
sS'906'
p802
I2
sS'907'
p803
I3
sS'904'
p804
I1
sS'908'
p805
I1
sS'909'
p806
I1
sS'45'
p807
I25
sS'1901'
p808
I1
sS'854'
p809
I1
sS'856'
p810
I1
sS'857'
p811
I1
sS'850'
p812
I1
sS'851'
p813
I2
sS'852'
p814
I1
sS'853'
p815
I1
sS'858'
p816
I1
sS'859'
p817
I3
sS'2685'
p818
I1
sS'99'
p819
I74
sS'98'
p820
I84
sS'91'
p821
I69
sS'90'
p822
I69
sS'93'
p823
I86
sS'92'
p824
I81
sS'95'
p825
I73
sS'94'
p826
I70
sS'97'
p827
I93
sS'96'
p828
I80
sS'1627'
p829
I1
sS'740'
p830
I2
sS'741'
p831
I3
sS'742'
p832
I2
sS'743'
p833
I3
sS'744'
p834
I1
sS'745'
p835
I2
sS'746'
p836
I4
sS'747'
p837
I2
sS'748'
p838
I4
sS'749'
p839
I3
sS'557'
p840
I3
sS'556'
p841
I5
sS'551'
p842
I8
sS'550'
p843
I5
sS'553'
p844
I3
sS'552'
p845
I7
sS'426'
p846
I18
sS'1053'
p847
I1
sS'1058'
p848
I1
sS'1197'
p849
I1
sS'1697'
p850
I1
sS'1755'
p851
I1
sS'619'
p852
I2
sS'612'
p853
I2
sS'613'
p854
I4
sS'610'
p855
I5
sS'611'
p856
I3
sS'616'
p857
I4
sS'617'
p858
I3
sS'614'
p859
I4
sS'615'
p860
I2
sS'511'
p861
I11
sS'1287'
p862
I1
sS'1286'
p863
I1
sS'1281'
p864
I1
sS'515'
p865
I11
sS'514'
p866
I10
sS'1472'
p867
I1
sS'1579'
p868
I1
sS'689'
p869
I1
sS'517'
p870
I4
sS'1474'
p871
I1
sS'685'
p872
I5
sS'684'
p873
I6
sS'687'
p874
I3
sS'686'
p875
I2
sS'681'
p876
I1
sS'683'
p877
I3
sS'1305'
p878
I2
sS'1307'
p879
I1
sS'1301'
p880
I1
sS'1302'
p881
I1
sS'459'
p882
I16
sS'621'
p883
I4
sS'498'
p884
I9
sS'499'
p885
I9
sS'494'
p886
I10
sS'495'
p887
I7
sS'496'
p888
I6
sS'497'
p889
I11
sS'490'
p890
I12
sS'491'
p891
I7
sS'492'
p892
I8
sS'493'
p893
I3
sS'24'
p894
I9
sS'25'
p895
I7
sS'26'
p896
I5
sS'27'
p897
I16
sS'20'
p898
I2
sS'21'
p899
I5
sS'22'
p900
I5
sS'23'
p901
I4
sS'28'
p902
I7
sS'29'
p903
I10
sS'407'
p904
I9
sS'406'
p905
I18
sS'405'
p906
I17
sS'404'
p907
I18
sS'403'
p908
I16
sS'402'
p909
I9
sS'401'
p910
I26
sS'400'
p911
I13
sS'1342'
p912
I1
sS'409'
p913
I11
sS'408'
p914
I21
sS'628'
p915
I4
sS'457'
p916
I12
sS'379'
p917
I20
sS'378'
p918
I17
sS'371'
p919
I19
sS'370'
p920
I28
sS'373'
p921
I33
sS'372'
p922
I22
sS'375'
p923
I18
sS'374'
p924
I22
sS'377'
p925
I22
sS'376'
p926
I21
sS'393'
p927
I22
sS'392'
p928
I16
sS'391'
p929
I18
sS'390'
p930
I20
sS'397'
p931
I13
sS'396'
p932
I24
sS'395'
p933
I18
sS'394'
p934
I12
sS'399'
p935
I18
sS'398'
p936
I18
sS'895'
p937
I1
sS'245'
p938
I49
sS'244'
p939
I58
sS'247'
p940
I55
sS'246'
p941
I71
sS'241'
p942
I69
sS'240'
p943
I76
sS'243'
p944
I60
sS'242'
p945
I60
sS'249'
p946
I61
sS'248'
p947
I46
sS'1086'
p948
I1
sS'1085'
p949
I1
sS'179'
p950
I106
sS'178'
p951
I89
sS'177'
p952
I97
sS'176'
p953
I105
sS'175'
p954
I84
sS'174'
p955
I115
sS'173'
p956
I102
sS'172'
p957
I100
sS'171'
p958
I96
sS'170'
p959
I107
sS'976'
p960
I1
sS'1081'
p961
I1
sS'971'
p962
I2
sS'183'
p963
I84
sS'978'
p964
I1
sS'182'
p965
I94
sS'1120'
p966
I2
sS'180'
p967
I102
sS'181'
p968
I108
sS'186'
p969
I80
sS'187'
p970
I89
sS'184'
p971
I88
sS'185'
p972
I97
sS'188'
p973
I94
sS'189'
p974
I93
sS'869'
p975
I3
sS'868'
p976
I1
sS'860'
p977
I1
sS'863'
p978
I1
sS'862'
p979
I1
sS'865'
p980
I3
sS'864'
p981
I3
sS'867'
p982
I2
sS'866'
p983
I2
sS'659'
p984
I7
sS'881'
p985
I1
sS'887'
p986
I2
sS'886'
p987
I1
sS'884'
p988
I4
sS'889'
p989
I2
sS'888'
p990
I3
sS'1966'
p991
I1
sS'1612'
p992
I1
sS'1961'
p993
I1
sS'1610'
p994
I1
sS'775'
p995
I1
sS'774'
p996
I1
sS'777'
p997
I2
sS'776'
p998
I1
sS'771'
p999
I1
sS'770'
p1000
I2
sS'773'
p1001
I3
sS'772'
p1002
I2
sS'779'
p1003
I2
sS'778'
p1004
I6
sS'77'
p1005
I51
sS'76'
p1006
I60
sS'75'
p1007
I65
sS'74'
p1008
I59
sS'73'
p1009
I43
sS'72'
p1010
I57
sS'71'
p1011
I43
sS'70'
p1012
I42
sS'79'
p1013
I45
sS'78'
p1014
I54
sS'1040'
p1015
I2
sS'1047'
p1016
I1
sS'609'
p1017
I8
sS'1048'
p1018
I2
sS'1681'
p1019
I1
sS'1762'
p1020
I1
sS'669'
p1021
I5
sS'1145'
p1022
I1
sS'667'
p1023
I4
sS'666'
p1024
I2
sS'1148'
p1025
I2
sS'663'
p1026
I3
sS'1266'
p1027
I1
sS'1264'
p1028
I1
sS'1119'
p1029
I2
sS'692'
p1030
I3
sS'693'
p1031
I3
sS'690'
p1032
I4
sS'691'
p1033
I2
sS'696'
p1034
I2
sS'697'
p1035
I3
sS'1540'
p1036
I1
sS'695'
p1037
I3
sS'698'
p1038
I2
sS'699'
p1039
I2
sS'542'
p1040
I7
sS'543'
p1041
I5
sS'540'
p1042
I6
sS'541'
p1043
I5
sS'546'
p1044
I5
sS'547'
p1045
I5
sS'544'
p1046
I7
sS'545'
p1047
I5
sS'8'
p1048
I2
sS'1467'
p1049
I1
sS'549'
p1050
I6
sS'1315'
p1051
I1
sS'1312'
p1052
I1
sS'766'
p1053
I3
sS'1010'
p1054
I2
sS'464'
p1055
I2
sS'1011'
p1056
I1
sS'414'
p1057
I17
sS'415'
p1058
I18
sS'416'
p1059
I14
sS'417'
p1060
I12
sS'410'
p1061
I10
sS'411'
p1062
I15
sS'412'
p1063
I26
sS'413'
p1064
I18
sS'418'
p1065
I17
sS'419'
p1066
I14
sS'319'
p1067
I31
sS'318'
p1068
I49
sS'313'
p1069
I34
sS'312'
p1070
I35
sS'311'
p1071
I46
sS'310'
p1072
I33
sS'317'
p1073
I29
sS'316'
p1074
I38
sS'315'
p1075
I31
sS'314'
p1076
I29
sS'1335'
p1077
I1
sS'368'
p1078
I22
sS'369'
p1079
I25
sS'366'
p1080
I23
sS'367'
p1081
I15
sS'364'
p1082
I24
sS'365'
p1083
I24
sS'362'
p1084
I30
sS'363'
p1085
I21
sS'360'
p1086
I32
sS'361'
p1087
I31
sS'446'
p1088
I8
sS'380'
p1089
I23
sS'381'
p1090
I25
sS'382'
p1091
I19
sS'383'
p1092
I24
sS'384'
p1093
I16
sS'385'
p1094
I19
sS'386'
p1095
I14
sS'387'
p1096
I15
sS'388'
p1097
I23
sS'389'
p1098
I21
sS'1332'
p1099
I1
sS'1072'
p1100
I2
sS'258'
p1101
I58
sS'259'
p1102
I61
sS'252'
p1103
I57
sS'253'
p1104
I62
sS'250'
p1105
I75
sS'251'
p1106
I66
sS'256'
p1107
I46
sS'257'
p1108
I54
sS'254'
p1109
I53
sS'255'
p1110
I50
sS'632'
p1111
I6
sS'168'
p1112
I102
sS'169'
p1113
I99
sS'164'
p1114
I115
sS'165'
p1115
I93
sS'166'
p1116
I92
sS'167'
p1117
I99
sS'160'
p1118
I109
sS'161'
p1119
I94
sS'162'
p1120
I87
sS'163'
p1121
I105
sS'964'
p1122
I1
sS'965'
p1123
I1
sS'967'
p1124
I1
sS'960'
p1125
I2
sS'961'
p1126
I1
sS'962'
p1127
I1
sS'634'
p1128
I2
sS'969'
p1129
I1
sS'679'
p1130
I3
sS'878'
p1131
I1
sS'879'
p1132
I3
sS'877'
p1133
I2
sS'875'
p1134
I2
sS'643'
p1135
I4
sS'870'
p1136
I1
sS'674'
p1137
I2
sS'1245'
p1138
I1
sS'676'
p1139
I1
sS'893'
p1140
I1
sS'894'
p1141
I1
sS'647'
p1142
I3
sS'896'
p1143
I2
sS'899'
p1144
I1
sS'646'
p1145
I2
sS'1099'
p1146
I1
sS'649'
p1147
I6
sS'672'
p1148
I5
sS'648'
p1149
I4
sS'638'
p1150
I2
sS'1608'
p1151
I1
sS'809'
p1152
I1
sS'808'
p1153
I3
sS'803'
p1154
I3
sS'800'
p1155
I2
sS'807'
p1156
I2
sS'806'
p1157
I1
sS'805'
p1158
I2
sS'804'
p1159
I3
sS'768'
p1160
I2
sS'769'
p1161
I1
sS'762'
p1162
I3
sS'763'
p1163
I2
sS'760'
p1164
I2
sS'761'
p1165
I1
sS'1784'
p1166
I1
sS'767'
p1167
I2
sS'765'
p1168
I1
sS'1079'
p1169
I1
sS'1076'
p1170
I1
sS'1074'
p1171
I1
sS'1779'
p1172
I1
sS'1070'
p1173
I1
sS'678'
p1174
I7
sS'1091'
p1175
I1
sS'1092'
p1176
I2
sS'1155'
p1177
I2
sS'675'
p1178
I2
sS'1157'
p1179
I1
sS'677'
p1180
I5
sS'670'
p1181
I2
sS'1150'
p1182
I1
sS'1153'
p1183
I1
sS'673'
p1184
I3
sS'1082'
p1185
I1
sS'59'
p1186
I24
sS'58'
p1187
I29
sS'55'
p1188
I24
sS'54'
p1189
I38
sS'57'
p1190
I33
sS'56'
p1191
I36
sS'51'
p1192
I26
sS'50'
p1193
I17
sS'53'
p1194
I25
sS'52'
p1195
I31
sS'537'
p1196
I8
sS'536'
p1197
I11
sS'535'
p1198
I9
sS'534'
p1199
I8
sS'533'
p1200
I5
sS'532'
p1201
I5
sS'531'
p1202
I9
sS'530'
p1203
I6
sS'1410'
p1204
I2
sS'1413'
p1205
I1
sS'1415'
p1206
I1
sS'539'
p1207
I10
sS'538'
p1208
I12
sS'1323'
p1209
I1
sS'1320'
p1210
I1
sS'1723'
p1211
I1
sS'1324'
p1212
I1
sS'1328'
p1213
I2
sS'1418'
p1214
I1
sS'1256'
p1215
I1
sS'428'
p1216
I18
sS'1255'
p1217
I1
sS'421'
p1218
I15
sS'420'
p1219
I22
sS'423'
p1220
I13
sS'422'
p1221
I10
sS'1393'
p1222
I1
sS'424'
p1223
I15
sS'1391'
p1224
I1
sS'1390'
p1225
I1
sS'308'
p1226
I41
sS'309'
p1227
I43
sS'300'
p1228
I30
sS'301'
p1229
I40
sS'302'
p1230
I37
sS'303'
p1231
I41
sS'304'
p1232
I38
sS'305'
p1233
I47
sS'306'
p1234
I50
sS'307'
p1235
I52
sS'1321'
p1236
I1
sS'1166'
p1237
I1
sS'229'
p1238
I71
sS'228'
p1239
I79
sS'227'
p1240
I68
sS'226'
p1241
I70
sS'225'
p1242
I72
sS'224'
p1243
I74
sS'223'
p1244
I77
sS'222'
p1245
I89
sS'623'
p1246
I2
sS'220'
p1247
I89
sS'151'
p1248
I77
sS'150'
p1249
I93
sS'153'
p1250
I104
sS'152'
p1251
I97
sS'155'
p1252
I108
sS'154'
p1253
I110
sS'157'
p1254
I103
sS'156'
p1255
I103
sS'159'
p1256
I99
sS'158'
p1257
I76
sS'959'
p1258
I2
sS'958'
p1259
I1
sS'2134'
p1260
I1
sS'951'
p1261
I1
sS'952'
p1262
I1
sS'957'
p1263
I1
sS'956'
p1264
I1
sS'2500'
p1265
I1
sS'1807'
p1266
I1
sS'509'
p1267
I5
sS'1801'
p1268
I1
sS'1546'
p1269
I1
sS'429'
p1270
I11
sS'668'
p1271
I1
sS'1944'
p1272
I1
sS'818'
p1273
I2
sS'811'
p1274
I1
sS'812'
p1275
I3
sS'813'
p1276
I2
sS'814'
p1277
I1
sS'665'
p1278
I2
sS'816'
p1279
I1
sS'719'
p1280
I2
sS'718'
p1281
I4
sS'717'
p1282
I1
sS'716'
p1283
I6
sS'715'
p1284
I2
sS'712'
p1285
I3
sS'710'
p1286
I1
sS'660'
p1287
I6
sS'1069'
p1288
I1
sS'1705'
p1289
I1
sS'1061'
p1290
I2
sS'425'
p1291
I11
sS'427'
p1292
I21
sS'1667'
p1293
I1
sS'1259'
p1294
I1
sS'591'
p1295
I4
sS'1129'
p1296
I1
sS'593'
p1297
I4
sS'592'
p1298
I9
sS'595'
p1299
I1
sS'594'
p1300
I4
sS'597'
p1301
I8
sS'1080'
p1302
I1
sS'599'
p1303
I1
sS'598'
p1304
I3
sS'629'
p1305
I5
sS'1123'
p1306
I1
sS'1089'
p1307
I2
sS'524'
p1308
I8
sS'525'
p1309
I8
sS'526'
p1310
I5
sS'527'
p1311
I9
sS'1018'
p1312
I3
sS'521'
p1313
I4
sS'522'
p1314
I7
sS'523'
p1315
I3
sS'1014'
p1316
I1
sS'1402'
p1317
I1
sS'1016'
p1318
I3
sS'528'
p1319
I3
sS'529'
p1320
I5
sS'1405'
p1321
I1
sS'1234'
p1322
I1
sS'1235'
p1323
I1
sS'449'
p1324
I11
sS'448'
p1325
I19
sS'443'
p1326
I12
sS'442'
p1327
I19
sS'441'
p1328
I10
sS'440'
p1329
I9
sS'447'
p1330
I14
sS'1239'
p1331
I1
sS'445'
p1332
I8
sS'444'
p1333
I13
sS'39'
p1334
I22
sS'38'
p1335
I18
sS'694'
p1336
I4
sS'33'
p1337
I7
sS'32'
p1338
I3
sS'31'
p1339
I11
sS'30'
p1340
I10
sS'37'
p1341
I21
sS'36'
p1342
I14
sS'35'
p1343
I4
sS'34'
p1344
I6
sS'641'
p1345
I1
sS'640'
p1346
I3
sS'1243'
p1347
I1
sS'642'
p1348
I2
sS'645'
p1349
I4
sS'644'
p1350
I8
sS'438'
p1351
I17
sS'439'
p1352
I12
sS'436'
p1353
I15
sS'437'
p1354
I11
sS'434'
p1355
I10
sS'435'
p1356
I11
sS'432'
p1357
I8
sS'433'
p1358
I15
sS'430'
p1359
I8
sS'431'
p1360
I18
sS'339'
p1361
I27
sS'338'
p1362
I27
sS'335'
p1363
I26
sS'334'
p1364
I42
sS'337'
p1365
I31
sS'336'
p1366
I23
sS'331'
p1367
I33
sS'330'
p1368
I28
sS'333'
p1369
I28
sS'332'
p1370
I24
sS'89'
p1371
I65
sS'559'
p1372
I2
sS'558'
p1373
I3
sS'555'
p1374
I10
sS'554'
p1375
I5
sS'1469'
p1376
I1
sS'1468'
p1377
I1
sS'548'
p1378
I4
sS'997'
p1379
I1
sS'3630'
p1380
I1
sS'238'
p1381
I72
sS'239'
p1382
I57
sS'234'
p1383
I71
sS'235'
p1384
I74
sS'236'
p1385
I68
sS'237'
p1386
I65
sS'230'
p1387
I70
sS'231'
p1388
I70
sS'232'
p1389
I67
sS'233'
p1390
I69
sS'2229'
p1391
I1
sS'2220'
p1392
I1
sS'146'
p1393
I84
sS'147'
p1394
I103
sS'144'
p1395
I91
sS'145'
p1396
I92
sS'142'
p1397
I79
sS'143'
p1398
I101
sS'140'
p1399
I110
sS'141'
p1400
I86
sS'563'
p1401
I4
sS'148'
p1402
I87
sS'149'
p1403
I98
sS'1888'
p1404
I1
sS'948'
p1405
I1
sS'945'
p1406
I1
sS'940'
p1407
I1
sS'2085'
p1408
I1
sS'2538'
p1409
I1
sS'1364'
p1410
I1
sS'133'
p1411
I101
sS'132'
p1412
I104
sS'131'
p1413
I117
sS'130'
p1414
I115
sS'137'
p1415
I95
sS'136'
p1416
I111
sS'135'
p1417
I112
sS'134'
p1418
I91
sS'139'
p1419
I96
sS'138'
p1420
I79
sS'939'
p1421
I1
sS'938'
p1422
I1
sS'931'
p1423
I1
sS'930'
p1424
I3
sS'937'
p1425
I3
sS'936'
p1426
I2
sS'935'
p1427
I1
sS'829'
p1428
I2
sS'825'
p1429
I1
sS'824'
p1430
I1
sS'827'
p1431
I1
sS'826'
p1432
I2
sS'821'
p1433
I1
sS'822'
p1434
I2
sS'708'
p1435
I2
sS'709'
p1436
I2
sS'704'
p1437
I1
sS'705'
p1438
I3
sS'706'
p1439
I4
sS'707'
p1440
I4
sS'700'
p1441
I3
sS'701'
p1442
I3
sS'702'
p1443
I4
sS'703'
p1444
I4
sS'88'
p1445
I77
sS'1174'
p1446
I1
sS'82'
p1447
I61
sS'83'
p1448
I68
sS'80'
p1449
I48
sS'81'
p1450
I61
sS'86'
p1451
I76
sS'87'
p1452
I70
sS'84'
p1453
I51
sS'85'
p1454
I60
sS'1713'
p1455
I1
sS'796'
p1456
I1
sS'795'
p1457
I1
sS'794'
p1458
I5
sS'793'
p1459
I3
sS'791'
p1460
I1
sS'790'
p1461
I6
sS'799'
p1462
I3
sS'1650'
p1463
I1
sS'586'
p1464
I6
sS'587'
p1465
I7
sS'1139'
p1466
I1
sS'585'
p1467
I6
sS'582'
p1468
I4
sS'583'
p1469
I8
sS'580'
p1470
I7
sS'581'
p1471
I5
sS'1130'
p1472
I2
sS'588'
p1473
I4
sS'1275'
p1474
I1
sS'1179'
p1475
I1
sS'1277'
p1476
I1
sS'3010'
p1477
I1
sS'519'
p1478
I6
sS'518'
p1479
I13
sS'1008'
p1480
I2
sS'1007'
p1481
I1
sS'510'
p1482
I9
sS'513'
p1483
I5
sS'512'
p1484
I3
sS'1003'
p1485
I2
sS'1002'
p1486
I1
sS'1001'
p1487
I1
sS'1000'
p1488
I1
sS'458'
p1489
I11
sS'622'
p1490
I3
sS'1225'
p1491
I1
sS'620'
p1492
I4
sS'627'
p1493
I3
sS'626'
p1494
I2
sS'625'
p1495
I2
sS'624'
p1496
I4
sS'450'
p1497
I14
sS'451'
p1498
I11
sS'452'
p1499
I8
sS'453'
p1500
I6
sS'454'
p1501
I9
sS'455'
p1502
I15
sS'456'
p1503
I7
sS'1228'
p1504
I1
sS'7493'
p1505
I1
sS'656'
p1506
I2
sS'654'
p1507
I3
sS'655'
p1508
I4
sS'1506'
p1509
I1
sS'653'
p1510
I3
sS'650'
p1511
I2
sS'651'
p1512
I1
sS'658'
p1513
I4
sS'516'
p1514
I7
sS'12'
p1515
I5
sS'15'
p1516
I3
sS'17'
p1517
I1
sS'16'
p1518
I2
sS'19'
p1519
I5
sS'18'
p1520
I8
sS'568'
p1521
I7
sS'752'
p1522
I1
sS'941'
p1523
I2
sS'322'
p1524
I29
sS'323'
p1525
I28
sS'320'
p1526
I32
sS'321'
p1527
I36
sS'326'
p1528
I42
sS'327'
p1529
I36
sS'324'
p1530
I34
sS'325'
p1531
I31
sS'328'
p1532
I25
sS'329'
p1533
I34
sS'759'
p1534
I1
sS'201'
p1535
I99
sS'200'
p1536
I99
sS'203'
p1537
I87
sS'202'
p1538
I86
sS'205'
p1539
I105
sS'204'
p1540
I72
sS'207'
p1541
I78
sS'206'
p1542
I90
sS'209'
p1543
I73
sS'208'
p1544
I70
sS'2330'
p1545
I1
sS'1577'
p1546
I1
sS'221'
p1547
I88
sS'995'
p1548
I1
sS'994'
p1549
I1
sS'2466'
p1550
I1
sS'990'
p1551
I2
sS'999'
p1552
I1
sS'998'
p1553
I1
sS'120'
p1554
I105
sS'121'
p1555
I98
sS'122'
p1556
I100
sS'123'
p1557
I102
sS'124'
p1558
I97
sS'125'
p1559
I109
sS'126'
p1560
I98
sS'127'
p1561
I106
sS'128'
p1562
I112
sS'129'
p1563
I95
sS'520'
p1564
I3
sS'928'
p1565
I1
sS'2146'
p1566
I1
sS'920'
p1567
I1
sS'2418'
p1568
I1
sS'927'
p1569
I1
sS'1183'
p1570
I2
sS'832'
p1571
I2
sS'833'
p1572
I1
sS'830'
p1573
I1
sS'837'
p1574
I1
sS'834'
p1575
I1
sS'835'
p1576
I2
sS'838'
p1577
I1
sS'839'
p1578
I3
sS'671'
p1579
I4
sS'784'
p1580
I1
sS'785'
p1581
I3
sS'786'
p1582
I1
sS'787'
p1583
I2
sS'780'
p1584
I1
sS'781'
p1585
I1
sS'783'
p1586
I1
sS'788'
p1587
I2
sS'1648'
p1588
I1
sS'579'
p1589
I9
sS'1165'
p1590
I1
sS'573'
p1591
I1
sS'572'
p1592
I6
sS'571'
p1593
I6
sS'570'
p1594
I5
sS'577'
p1595
I10
sS'576'
p1596
I6
sS'575'
p1597
I4
sS'574'
p1598
I5
sS'60'
p1599
I37
sS'61'
p1600
I37
sS'62'
p1601
I32
sS'63'
p1602
I49
sS'64'
p1603
I29
sS'65'
p1604
I42
sS'66'
p1605
I41
sS'67'
p1606
I50
sS'68'
p1607
I38
sS'69'
p1608
I43
sS'1588'
p1609
I1
sS'1425'
p1610
I1
sS'1424'
p1611
I1
sS'1428'
p1612
I1
sS'731'
p1613
I2
sS'733'
p1614
I1
sS'1372'
p1615
I1
sS'735'
p1616
I2
sS'734'
p1617
I2
sS'737'
p1618
I3
sS'736'
p1619
I2
sS'506'
p1620
I4
sS'738'
p1621
I1
sS'1030'
p1622
I1
sS'505'
p1623
I3
sS'502'
p1624
I12
sS'503'
p1625
I9
sS'500'
p1626
I10
sS'501'
p1627
I7
sS'630'
p1628
I8
sS'631'
p1629
I1
sS'1359'
p1630
I1
sS'633'
p1631
I2
sS'1216'
p1632
I1
sS'468'
p1633
I9
sS'636'
p1634
I2
sS'637'
p1635
I4
sS'1353'
p1636
I1
sS'1352'
p1637
I1
sS'467'
p1638
I12
sS'466'
p1639
I4
sS'461'
p1640
I18
sS'460'
p1641
I17
sS'463'
p1642
I10
sS'462'
p1643
I9
sS'1641'
p1644
I1
sS'1640'
p1645
I1
sS'2894'
p1646
I1
sS'1106'
p1647
I1
sS'1456'
p1648
I1
sS'1105'
p1649
I1
sS'1102'
p1650
I1
sS'1100'
p1651
I1
sS'1101'
p1652
I1
sS'1510'
p1653
I1
sS'1513'
p1654
I1
sS'789'
p1655
I1
sS'584'
p1656
I5
sS'4013'
p1657
I1
sS'357'
p1658
I27
sS'356'
p1659
I20
sS'355'
p1660
I17
sS'354'
p1661
I13
sS'353'
p1662
I32
sS'352'
p1663
I24
sS'351'
p1664
I20
sS'350'
p1665
I27
sS'359'
p1666
I20
sS'358'
p1667
I20
sS'216'
p1668
I86
sS'217'
p1669
I75
sS'214'
p1670
I73
sS'215'
p1671
I84
sS'212'
p1672
I94
sS'213'
p1673
I84
sS'210'
p1674
I77
sS'211'
p1675
I99
sS'218'
p1676
I76
sS'219'
p1677
I83
sS'289'
p1678
I39
sS'288'
p1679
I40
sS'281'
p1680
I42
sS'280'
p1681
I40
sS'283'
p1682
I48
sS'282'
p1683
I47
sS'285'
p1684
I39
sS'284'
p1685
I43
sS'287'
p1686
I39
sS'286'
p1687
I60
sS'263'
p1688
I59
sS'262'
p1689
I60
sS'261'
p1690
I54
sS'260'
p1691
I54
sS'267'
p1692
I46
sS'266'
p1693
I49
sS'265'
p1694
I57
sS'264'
p1695
I51
sS'269'
p1696
I58
sS'268'
p1697
I51
sS'1562'
p1698
I1
sS'2257'
p1699
I1
sS'982'
p1700
I3
sS'987'
p1701
I1
sS'115'
p1702
I82
sS'114'
p1703
I103
sS'117'
p1704
I95
sS'116'
p1705
I105
sS'111'
p1706
I91
sS'110'
p1707
I87
sS'113'
p1708
I87
sS'112'
p1709
I106
sS'119'
p1710
I88
sS'118'
p1711
I101
sS'1853'
p1712
I1
sS'2078'
p1713
I1
sS'914'
p1714
I1
sS'917'
p1715
I3
sS'916'
p1716
I1
sS'911'
p1717
I2
sS'910'
p1718
I1
sS'1933'
p1719
I1
sS'847'
p1720
I2
sS'846'
p1721
I2
sS'845'
p1722
I1
sS'843'
p1723
I2
sS'842'
p1724
I1
sS'841'
p1725
I1
sS'840'
p1726
I1
sS'849'
p1727
I2
sS'848'
p1728
I1
sS'1406'
p1729
I1
sS'589'
p1730
I2
sS'1984'
p1731
I1
sS'662'
p1732
I3
sS'1038'
p1733
I1
sS'753'
p1734
I2
sS'569'
p1735
I5
sS'751'
p1736
I2
sS'750'
p1737
I2
sS'757'
p1738
I1
sS'508'
p1739
I9
sS'755'
p1740
I3
sS'754'
p1741
I2
sS'560'
p1742
I6
sS'561'
p1743
I2
sS'562'
p1744
I3
sS'758'
p1745
I2
sS'564'
p1746
I4
sS'565'
p1747
I6
sS'566'
p1748
I7
sS'567'
p1749
I5
sS'739'
p1750
I1
sS'507'
p1751
I6
sS'504'
p1752
I15
sS'1024'
p1753
I2
sS'1021'
p1754
I2
sS'1189'
p1755
I1
sS'1029'
p1756
I1
sS'1028'
p1757
I1
sS'727'
p1758
I1
sS'724'
p1759
I1
sS'725'
p1760
I4
sS'722'
p1761
I2
sS'723'
p1762
I2
sS'720'
p1763
I1
sS'721'
p1764
I4
sS'1741'
p1765
I1
sS'728'
p1766
I3
sS'729'
p1767
I1
sS'605'
p1768
I4
sS'604'
p1769
I3
sS'607'
p1770
I5
sS'606'
p1771
I4
sS'601'
p1772
I2
sS'600'
p1773
I1
sS'603'
p1774
I7
sS'602'
p1775
I6
sS'1207'
p1776
I1
sS'1206'
p1777
I2
sS'1168'
p1778
I1
sS'608'
p1779
I3
sS'1202'
p1780
I1
sS'469'
p1781
I10
sS'635'
p1782
I5
sS'1214'
p1783
I1
sS'48'
p1784
I19
sS'49'
p1785
I21
sS'46'
p1786
I24
sS'47'
p1787
I25
sS'44'
p1788
I27
sS'1215'
p1789
I1
sS'42'
p1790
I15
sS'43'
p1791
I18
sS'40'
p1792
I17
sS'41'
p1793
I25
sS'1111'
p1794
I4
sS'465'
p1795
I13
sS'1113'
p1796
I1
sS'1114'
p1797
I1
sS'639'
p1798
I3
sS'1560'
p1799
I1
sS'1290'
p1800
I1
sS'1297'
p1801
I1
sS'1448'
p1802
I1
sS'1219'
p1803
I1
sS'1355'
p1804
I2
sS'489'
p1805
I10
sS'488'
p1806
I13
sS'487'
p1807
I11
sS'486'
p1808
I7
sS'485'
p1809
I6
sS'484'
p1810
I10
sS'483'
p1811
I6
sS'482'
p1812
I12
sS'481'
p1813
I11
sS'480'
p1814
I8
sS'590'
p1815
I1
sS'472'
p1816
I7
sS'473'
p1817
I9
sS'470'
p1818
I5
sS'471'
p1819
I13
sS'476'
p1820
I13
sS'477'
p1821
I12
sS'474'
p1822
I4
sS'475'
p1823
I8
sS'478'
p1824
I12
sS'479'
p1825
I12
stp1826
Rp1827
(dp1828
g19
I24337
sg27
Nsg28
Nsg29
Nsbsg30
I1091
sg31
F24882.5
sbs(g8
S'\xb1\xbe\xcc\xfb'
p1829
tp1830
g0
(g14
g2
Ntp1831
Rp1832
(dp1833
g18
F0.5
sg19
I24337
sg20
g0
(g21
g22
(dp1834
I0
I23465
sI1
I872
stp1835
Rp1836
(dp1837
g19
I24337
sg27
Nsg28
Nsg29
Nsbsg30
I3
sg31
F24338.5
sbs(g8
S'\xd2\xd4\xba\xf3'
p1838
tp1839
g0
(g14
g2
Ntp1840
Rp1841
(dp1842
g18
F0.5
sg19
I24337
sg20
g0
(g21
g22
(dp1843
I0
I23418
sI1
I919
stp1844
Rp1845
(dp1846
g19
I24337
sg27
Nsg28
Nsg29
Nsbsg30
I3
sg31
F24338.5
sbs(g9
S'\xd3\xd0'
p1847
tp1848
g0
(g14
g2
Ntp1849
Rp1850
(dp1851
g18
F0.5
sg19
I1422
sg20
g0
(g21
g22
(dp1852
I0
I1286
sI1
I136
stp1853
Rp1854
(dp1855
g19
I1422
sg27
Nsg28
Nsg29
Nsbsg30
I3
sg31
F1423.5
sbs(g8
S'lines_num'
p1856
tp1857
g0
(g14
g2
Ntp1858
Rp1859
(dp1860
g18
F0.5
sg19
I24337
sg20
g0
(g21
g22
(dp1861
S'11'
p1862
I65
sS'10'
p1863
I82
sS'16'
p1864
I26
sS'12'
p1865
I43
sS'17'
p1866
I14
sS'15'
p1867
I20
sS'105'
p1868
I1
sS'24'
p1869
I1
sS'25'
p1870
I1
sS'13'
p1871
I28
sS'27'
p1872
I3
sS'20'
p1873
I6
sS'21'
p1874
I10
sS'22'
p1875
I2
sS'23'
p1876
I3
sS'33'
p1877
I2
sS'18'
p1878
I10
sS'31'
p1879
I1
sS'45'
p1880
I1
sS'28'
p1881
I1
sg8
I8353
sS'19'
p1882
I8
sS'3'
p1883
I4498
sS'2'
p1884
I4198
sS'5'
p1885
I2113
sS'4'
p1886
I3137
sS'7'
p1887
I476
sS'6'
p1888
I836
sS'9'
p1889
I166
sg1048
I208
sS'14'
p1890
I24
stp1891
Rp1892
(dp1893
g19
I24337
sg27
Nsg28
Nsg29
Nsbsg30
I32
sg31
F24353.0
sbs(g8
S'\xb6\xbc'
p1894
tp1895
g0
(g14
g2
Ntp1896
Rp1897
(dp1898
g18
F0.5
sg19
I24337
sg20
g0
(g21
g22
(dp1899
I0
I21462
sI1
I2875
stp1900
Rp1901
(dp1902
g19
I24337
sg27
Nsg28
Nsg29
Nsbsg30
I3
sg31
F24338.5
sbs(g8
S'['
p1903
tp1904
g0
(g14
g2
Ntp1905
Rp1906
(dp1907
g18
F0.5
sg19
I24337
sg20
g0
(g21
g22
(dp1908
I0
I23256
sI1
I1081
stp1909
Rp1910
(dp1911
g19
I24337
sg27
Nsg28
Nsg29
Nsbsg30
I3
sg31
F24338.5
sbs(g9
S'\xca\xb2\xc3\xb4'
p1912
tp1913
g0
(g14
g2
Ntp1914
Rp1915
(dp1916
g18
F0.5
sg19
I1422
sg20
g0
(g21
g22
(dp1917
I0
I1383
sI1
I39
stp1918
Rp1919
(dp1920
g19
I1422
sg27
Nsg28
Nsg29
Nsbsg30
I3
sg31
F1423.5
sbs(g9
S'\xb8\xd0\xbe\xf5'
p1921
tp1922
g0
(g14
g2
Ntp1923
Rp1924
(dp1925
g18
F0.5
sg19
I1422
sg20
g0
(g21
g22
(dp1926
I0
I1375
sI1
I47
stp1927
Rp1928
(dp1929
g19
I1422
sg27
Nsg28
Nsg29
Nsbsg30
I3
sg31
F1423.5
sbs(g9
S'\xc3\xc0\xb9\xfa'
p1930
tp1931
g0
(g14
g2
Ntp1932
Rp1933
(dp1934
g18
F0.5
sg19
I1422
sg20
g0
(g21
g22
(dp1935
I0
I1235
sI1
I187
stp1936
Rp1937
(dp1938
g19
I1422
sg27
Nsg28
Nsg29
Nsbsg30
I3
sg31
F1423.5
sbs(g9
S'master'
p1939
tp1940
g0
(g14
g2
Ntp1941
Rp1942
(dp1943
g18
F0.5
sg19
I1422
sg20
g0
(g21
g22
(dp1944
I0
I1315
sI1
I107
stp1945
Rp1946
(dp1947
g19
I1422
sg27
Nsg28
Nsg29
Nsbsg30
I3
sg31
F1423.5
sbs(g9
S'ms'
p1948
tp1949
g0
(g14
g2
Ntp1950
Rp1951
(dp1952
g18
F0.5
sg19
I1422
sg20
g0
(g21
g22
(dp1953
I0
I1372
sI1
I50
stp1954
Rp1955
(dp1956
g19
I1422
sg27
Nsg28
Nsg29
Nsbsg30
I3
sg31
F1423.5
sbs(g8
S'\xbe\xf5\xb5\xc3'
p1957
tp1958
g0
(g14
g2
Ntp1959
Rp1960
(dp1961
g18
F0.5
sg19
I24337
sg20
g0
(g21
g22
(dp1962
I0
I22930
sI1
I1407
stp1963
Rp1964
(dp1965
g19
I24337
sg27
Nsg28
Nsg29
Nsbsg30
I3
sg31
F24338.5
sbs(g8
S'\xb5\xc4'
p1966
tp1967
g0
(g14
g2
Ntp1968
Rp1969
(dp1970
g18
F0.5
sg19
I24337
sg20
g0
(g21
g22
(dp1971
I0
I4980
sI1
I19357
stp1972
Rp1973
(dp1974
g19
I24337
sg27
Nsg28
Nsg29
Nsbsg30
I3
sg31
F24338.5
sbs(g8
S'\xd1\xa7\xb3\xa4'
p1975
tp1976
g0
(g14
g2
Ntp1977
Rp1978
(dp1979
g18
F0.5
sg19
I24337
sg20
g0
(g21
g22
(dp1980
I0
I22995
sI1
I1342
stp1981
Rp1982
(dp1983
g19
I24337
sg27
Nsg28
Nsg29
Nsbsg30
I3
sg31
F24338.5
sbs(g9
S'\xd2\xbb\xd6\xb1'
p1984
tp1985
g0
(g14
g2
Ntp1986
Rp1987
(dp1988
g18
F0.5
sg19
I1422
sg20
g0
(g21
g22
(dp1989
I0
I1383
sI1
I39
stp1990
Rp1991
(dp1992
g19
I1422
sg27
Nsg28
Nsg29
Nsbsg30
I3
sg31
F1423.5
sbs(g9
S'\xc5\xf3\xd3\xd1'
p1993
tp1994
g0
(g14
g2
Ntp1995
Rp1996
(dp1997
g18
F0.5
sg19
I1422
sg20
g0
(g21
g22
(dp1998
I0
I1327
sI1
I95
stp1999
Rp2000
(dp2001
g19
I1422
sg27
Nsg28
Nsg29
Nsbsg30
I3
sg31
F1423.5
sbs(g8
S'\xb0\xc9'
p2002
tp2003
g0
(g14
g2
Ntp2004
Rp2005
(dp2006
g18
F0.5
sg19
I24337
sg20
g0
(g21
g22
(dp2007
I0
I23089
sI1
I1248
stp2008
Rp2009
(dp2010
g19
I24337
sg27
Nsg28
Nsg29
Nsbsg30
I3
sg31
F24338.5
sbs(g9
S'\xcc\xf9'
p2011
tp2012
g0
(g14
g2
Ntp2013
Rp2014
(dp2015
g18
F0.5
sg19
I1422
sg20
g0
(g21
g22
(dp2016
I0
I1388
sI1
I34
stp2017
Rp2018
(dp2019
g19
I1422
sg27
Nsg28
Nsg29
Nsbsg30
I3
sg31
F1423.5
sbs(g8
S'\xd3\xda'
p2020
tp2021
g0
(g14
g2
Ntp2022
Rp2023
(dp2024
g18
F0.5
sg19
I24337
sg20
g0
(g21
g22
(dp2025
I0
I23084
sI1
I1253
stp2026
Rp2027
(dp2028
g19
I24337
sg27
Nsg28
Nsg29
Nsbsg30
I3
sg31
F24338.5
sbs(g8
S'qq'
p2029
tp2030
g0
(g14
g2
Ntp2031
Rp2032
(dp2033
g18
F0.5
sg19
I24337
sg20
g0
(g21
g22
(dp2034
I0
I23391
sI1
I946
stp2035
Rp2036
(dp2037
g19
I24337
sg27
Nsg28
Nsg29
Nsbsg30
I3
sg31
F24338.5
sbs(g8
S'\xcd\xc6\xbc\xf6'
p2038
tp2039
g0
(g14
g2
Ntp2040
Rp2041
(dp2042
g18
F0.5
sg19
I24337
sg20
g0
(g21
g22
(dp2043
I0
I21769
sI1
I2568
stp2044
Rp2045
(dp2046
g19
I24337
sg27
Nsg28
Nsg29
Nsbsg30
I3
sg31
F24338.5
sbs(g8
S'offer'
p2047
tp2048
g0
(g14
g2
Ntp2049
Rp2050
(dp2051
g18
F0.5
sg19
I24337
sg20
g0
(g21
g22
(dp2052
I0
I23099
sI1
I1238
stp2053
Rp2054
(dp2055
g19
I24337
sg27
Nsg28
Nsg29
Nsbsg30
I3
sg31
F24338.5
sbs(g9
S'url'
p2056
tp2057
g0
(g14
g2
Ntp2058
Rp2059
(dp2060
g18
F0.5
sg19
I1422
sg20
g0
(g21
g22
(dp2061
I0
I1403
sI1
I19
stp2062
Rp2063
(dp2064
g19
I1422
sg27
Nsg28
Nsg29
Nsbsg30
I3
sg31
F1423.5
sbs(g9
S'\xb1\xe0\xbc\xad'
p2065
tp2066
g0
(g14
g2
Ntp2067
Rp2068
(dp2069
g18
F0.5
sg19
I1422
sg20
g0
(g21
g22
(dp2070
I0
I1353
sI1
I69
stp2071
Rp2072
(dp2073
g19
I1422
sg27
Nsg28
Nsg29
Nsbsg30
I3
sg31
F1423.5
sbs(g9
S'\xb6\xd4'
p2074
tp2075
g0
(g14
g2
Ntp2076
Rp2077
(dp2078
g18
F0.5
sg19
I1422
sg20
g0
(g21
g22
(dp2079
I0
I1381
sI1
I41
stp2080
Rp2081
(dp2082
g19
I1422
sg27
Nsg28
Nsg29
Nsbsg30
I3
sg31
F1423.5
sbs(g9
S'\xd6\xaa\xb5\xc0'
p2083
tp2084
g0
(g14
g2
Ntp2085
Rp2086
(dp2087
g18
F0.5
sg19
I1422
sg20
g0
(g21
g22
(dp2088
I0
I1163
sI1
I259
stp2089
Rp2090
(dp2091
g19
I1422
sg27
Nsg28
Nsg29
Nsbsg30
I3
sg31
F1423.5
sbs(g9
S'\xc0\xb2'
p2092
tp2093
g0
(g14
g2
Ntp2094
Rp2095
(dp2096
g18
F0.5
sg19
I1422
sg20
g0
(g21
g22
(dp2097
I0
I1377
sI1
I45
stp2098
Rp2099
(dp2100
g19
I1422
sg27
Nsg28
Nsg29
Nsbsg30
I3
sg31
F1423.5
sbs(g8
S'\xd4\xf5\xc3\xb4'
p2101
tp2102
g0
(g14
g2
Ntp2103
Rp2104
(dp2105
g18
F0.5
sg19
I24337
sg20
g0
(g21
g22
(dp2106
I0
I23825
sI1
I512
stp2107
Rp2108
(dp2109
g19
I24337
sg27
Nsg28
Nsg29
Nsbsg30
I3
sg31
F24338.5
sbs(g9
S'\xba\xc3'
p2110
tp2111
g0
(g14
g2
Ntp2112
Rp2113
(dp2114
g18
F0.5
sg19
I1422
sg20
g0
(g21
g22
(dp2115
I0
I1204
sI1
I218
stp2116
Rp2117
(dp2118
g19
I1422
sg27
Nsg28
Nsg29
Nsbsg30
I3
sg31
F1423.5
sbs(g8
S'_'
p2119
tp2120
g0
(g14
g2
Ntp2121
Rp2122
(dp2123
g18
F0.5
sg19
I24337
sg20
g0
(g21
g22
(dp2124
I0
I23125
sI1
I1212
stp2125
Rp2126
(dp2127
g19
I24337
sg27
Nsg28
Nsg29
Nsbsg30
I3
sg31
F24338.5
sbs(g9
S'\xb0\xc9'
p2128
tp2129
g0
(g14
g2
Ntp2130
Rp2131
(dp2132
g18
F0.5
sg19
I1422
sg20
g0
(g21
g22
(dp2133
I0
I1363
sI1
I59
stp2134
Rp2135
(dp2136
g19
I1422
sg27
Nsg28
Nsg29
Nsbsg30
I3
sg31
F1423.5
sbs(g9
S'\xb9\xfd'
p2137
tp2138
g0
(g14
g2
Ntp2139
Rp2140
(dp2141
g18
F0.5
sg19
I1422
sg20
g0
(g21
g22
(dp2142
I0
I1381
sI1
I41
stp2143
Rp2144
(dp2145
g19
I1422
sg27
Nsg28
Nsg29
Nsbsg30
I3
sg31
F1423.5
sbs(g8
S'warald'
p2146
tp2147
g0
(g14
g2
Ntp2148
Rp2149
(dp2150
g18
F0.5
sg19
I24337
sg20
g0
(g21
g22
(dp2151
I0
I21017
sI1
I3320
stp2152
Rp2153
(dp2154
g19
I24337
sg27
Nsg28
Nsg29
Nsbsg30
I3
sg31
F24338.5
sbs(g8
S'\xb5\xc3\xb5\xbd'
p2155
tp2156
g0
(g14
g2
Ntp2157
Rp2158
(dp2159
g18
F0.5
sg19
I24337
sg20
g0
(g21
g22
(dp2160
I0
I23072
sI1
I1265
stp2161
Rp2162
(dp2163
g19
I24337
sg27
Nsg28
Nsg29
Nsbsg30
I3
sg31
F24338.5
sbs(g9
S'\xbf\xc9\xd2\xd4'
p2164
tp2165
g0
(g14
g2
Ntp2166
Rp2167
(dp2168
g18
F0.5
sg19
I1422
sg20
g0
(g21
g22
(dp2169
I0
I1356
sI1
I66
stp2170
Rp2171
(dp2172
g19
I1422
sg27
Nsg28
Nsg29
Nsbsg30
I3
sg31
F1423.5
sbs(g9
S'\xc9\xcf'
p2173
tp2174
g0
(g14
g2
Ntp2175
Rp2176
(dp2177
g18
F0.5
sg19
I1422
sg20
g0
(g21
g22
(dp2178
I0
I1349
sI1
I73
stp2179
Rp2180
(dp2181
g19
I1422
sg27
Nsg28
Nsg29
Nsbsg30
I3
sg31
F1423.5
sbs(g8
S'findpost'
p2182
tp2183
g0
(g14
g2
Ntp2184
Rp2185
(dp2186
g18
F0.5
sg19
I24337
sg20
g0
(g21
g22
(dp2187
I0
I24245
sI1
I92
stp2188
Rp2189
(dp2190
g19
I24337
sg27
Nsg28
Nsg29
Nsbsg30
I3
sg31
F24338.5
sbs(g8
S'\xbe\xad\xd1\xe9'
p2191
tp2192
g0
(g14
g2
Ntp2193
Rp2194
(dp2195
g18
F0.5
sg19
I24337
sg20
g0
(g21
g22
(dp2196
I0
I22420
sI1
I1917
stp2197
Rp2198
(dp2199
g19
I24337
sg27
Nsg28
Nsg29
Nsbsg30
I3
sg31
F24338.5
sbs(g9
S'\xc9\xea'
p2200
tp2201
g0
(g14
g2
Ntp2202
Rp2203
(dp2204
g18
F0.5
sg19
I1422
sg20
g0
(g21
g22
(dp2205
I0
I1341
sI1
I81
stp2206
Rp2207
(dp2208
g19
I1422
sg27
Nsg28
Nsg29
Nsbsg30
I3
sg31
F1423.5
sbs(g9
S'\xb6\xbc'
p2209
tp2210
g0
(g14
g2
Ntp2211
Rp2212
(dp2213
g18
F0.5
sg19
I1422
sg20
g0
(g21
g22
(dp2214
I0
I1315
sI1
I107
stp2215
Rp2216
(dp2217
g19
I1422
sg27
Nsg28
Nsg29
Nsbsg30
I3
sg31
F1423.5
sbs(g8
S'google'
p2218
tp2219
g0
(g14
g2
Ntp2220
Rp2221
(dp2222
g18
F0.5
sg19
I24337
sg20
g0
(g21
g22
(dp2223
I0
I22739
sI1
I1598
stp2224
Rp2225
(dp2226
g19
I24337
sg27
Nsg28
Nsg29
Nsbsg30
I3
sg31
F24338.5
sbs(g9
S'\xb1\xbe\xcc\xfb'
p2227
tp2228
g0
(g14
g2
Ntp2229
Rp2230
(dp2231
g18
F0.5
sg19
I1422
sg20
g0
(g21
g22
(dp2232
I0
I1353
sI1
I69
stp2233
Rp2234
(dp2235
g19
I1422
sg27
Nsg28
Nsg29
Nsbsg30
I3
sg31
F1423.5
sbs(g9
S'\xa1\xa3'
p2236
tp2237
g0
(g14
g2
Ntp2238
Rp2239
(dp2240
g18
F0.5
sg19
I1422
sg20
g0
(g21
g22
(dp2241
I0
I870
sI1
I552
stp2242
Rp2243
(dp2244
g19
I1422
sg27
Nsg28
Nsg29
Nsbsg30
I3
sg31
F1423.5
sbs(g8
S'\xbb\xf2\xd5\xdf'
p2245
tp2246
g0
(g14
g2
Ntp2247
Rp2248
(dp2249
g18
F0.5
sg19
I24337
sg20
g0
(g21
g22
(dp2250
I0
I23103
sI1
I1234
stp2251
Rp2252
(dp2253
g19
I24337
sg27
Nsg28
Nsg29
Nsbsg30
I3
sg31
F24338.5
sbs(g9
S'\xd2\xbb\xc6\xf0'
p2254
tp2255
g0
(g14
g2
Ntp2256
Rp2257
(dp2258
g18
F0.5
sg19
I1422
sg20
g0
(g21
g22
(dp2259
I0
I1383
sI1
I39
stp2260
Rp2261
(dp2262
g19
I1422
sg27
Nsg28
Nsg29
Nsbsg30
I3
sg31
F1423.5
sbs(g9
S'['
p2263
tp2264
g0
(g14
g2
Ntp2265
Rp2266
(dp2267
g18
F0.5
sg19
I1422
sg20
g0
(g21
g22
(dp2268
I0
I1332
sI1
I90
stp2269
Rp2270
(dp2271
g19
I1422
sg27
Nsg28
Nsg29
Nsbsg30
I3
sg31
F1423.5
sbs(g8
S'\xc4\xbf\xc7\xb0'
p2272
tp2273
g0
(g14
g2
Ntp2274
Rp2275
(dp2276
g18
F0.5
sg19
I24337
sg20
g0
(g21
g22
(dp2277
I0
I21028
sI1
I3309
stp2278
Rp2279
(dp2280
g19
I24337
sg27
Nsg28
Nsg29
Nsbsg30
I3
sg31
F24338.5
sbs(g8
S'\xb0\xef\xd6\xfa'
p2281
tp2282
g0
(g14
g2
Ntp2283
Rp2284
(dp2285
g18
F0.5
sg19
I24337
sg20
g0
(g21
g22
(dp2286
I0
I22990
sI1
I1347
stp2287
Rp2288
(dp2289
g19
I24337
sg27
Nsg28
Nsg29
Nsbsg30
I3
sg31
F24338.5
sbs(g8
S'\xc1\xf4\xd1\xa7'
p2290
tp2291
g0
(g14
g2
Ntp2292
Rp2293
(dp2294
g18
F0.5
sg19
I24337
sg20
g0
(g21
g22
(dp2295
I0
I22338
sI1
I1999
stp2296
Rp2297
(dp2298
g19
I24337
sg27
Nsg28
Nsg29
Nsbsg30
I3
sg31
F24338.5
sbs(g9
S'\xb7\xd6\xcf\xed'
p2299
tp2300
g0
(g14
g2
Ntp2301
Rp2302
(dp2303
g18
F0.5
sg19
I1422
sg20
g0
(g21
g22
(dp2304
I0
I1377
sI1
I45
stp2305
Rp2306
(dp2307
g19
I1422
sg27
Nsg28
Nsg29
Nsbsg30
I3
sg31
F1423.5
sbs(g8
S'\xbd\xbb\xc1\xf7'
p2308
tp2309
g0
(g14
g2
Ntp2310
Rp2311
(dp2312
g18
F0.5
sg19
I24337
sg20
g0
(g21
g22
(dp2313
I0
I21797
sI1
I2540
stp2314
Rp2315
(dp2316
g19
I24337
sg27
Nsg28
Nsg29
Nsbsg30
I3
sg31
F24338.5
sbs(g8
S'\xd7\xd4\xbc\xba'
p2317
tp2318
g0
(g14
g2
Ntp2319
Rp2320
(dp2321
g18
F0.5
sg19
I24337
sg20
g0
(g21
g22
(dp2322
I0
I22341
sI1
I1996
stp2323
Rp2324
(dp2325
g19
I24337
sg27
Nsg28
Nsg29
Nsbsg30
I3
sg31
F24338.5
sbs(g8
S'\xbb\xb9'
p2326
tp2327
g0
(g14
g2
Ntp2328
Rp2329
(dp2330
g18
F0.5
sg19
I24337
sg20
g0
(g21
g22
(dp2331
I0
I22050
sI1
I2287
stp2332
Rp2333
(dp2334
g19
I24337
sg27
Nsg28
Nsg29
Nsbsg30
I3
sg31
F24338.5
sbs(g8
S'2013'
p2335
tp2336
g0
(g14
g2
Ntp2337
Rp2338
(dp2339
g18
F0.5
sg19
I24337
sg20
g0
(g21
g22
(dp2340
I0
I22075
sI1
I2262
stp2341
Rp2342
(dp2343
g19
I24337
sg27
Nsg28
Nsg29
Nsbsg30
I3
sg31
F24338.5
sbs(g9
S'\xbd\xe9\xc9\xdc'
p2344
tp2345
g0
(g14
g2
Ntp2346
Rp2347
(dp2348
g18
F0.5
sg19
I1422
sg20
g0
(g21
g22
(dp2349
I0
I1355
sI1
I67
stp2350
Rp2351
(dp2352
g19
I1422
sg27
Nsg28
Nsg29
Nsbsg30
I3
sg31
F1423.5
sbs(g8
S'com'
p2353
tp2354
g0
(g14
g2
Ntp2355
Rp2356
(dp2357
g18
F0.5
sg19
I24337
sg20
g0
(g21
g22
(dp2358
I0
I24090
sI1
I247
stp2359
Rp2360
(dp2361
g19
I24337
sg27
Nsg28
Nsg29
Nsbsg30
I3
sg31
F24338.5
sbs(g9
S'b'
p2362
tp2363
g0
(g14
g2
Ntp2364
Rp2365
(dp2366
g18
F0.5
sg19
I1422
sg20
g0
(g21
g22
(dp2367
I0
I1401
sI1
I21
stp2368
Rp2369
(dp2370
g19
I1422
sg27
Nsg28
Nsg29
Nsbsg30
I3
sg31
F1423.5
sbs(g9
S'\xb1\xbe\xbf\xc6\xd7\xa8\xd2\xb5'
p2371
tp2372
g0
(g14
g2
Ntp2373
Rp2374
(dp2375
g18
F0.5
sg19
I1422
sg20
g0
(g21
g22
(dp2376
I0
I1353
sI1
I69
stp2377
Rp2378
(dp2379
g19
I1422
sg27
Nsg28
Nsg29
Nsbsg30
I3
sg31
F1423.5
sbs(g8
S'\xb8\xf8'
p2380
tp2381
g0
(g14
g2
Ntp2382
Rp2383
(dp2384
g18
F0.5
sg19
I24337
sg20
g0
(g21
g22
(dp2385
I0
I23372
sI1
I965
stp2386
Rp2387
(dp2388
g19
I24337
sg27
Nsg28
Nsg29
Nsbsg30
I3
sg31
F24338.5
sbs(g9
S'}'
p2389
tp2390
g0
(g14
g2
Ntp2391
Rp2392
(dp2393
g18
F0.5
sg19
I1422
sg20
g0
(g21
g22
(dp2394
I0
I1353
sI1
I69
stp2395
Rp2396
(dp2397
g19
I1422
sg27
Nsg28
Nsg29
Nsbsg30
I3
sg31
F1423.5
sbs(g8
S'\xd2\xaa'
p2398
tp2399
g0
(g14
g2
Ntp2400
Rp2401
(dp2402
g18
F0.5
sg19
I24337
sg20
g0
(g21
g22
(dp2403
I0
I21854
sI1
I2483
stp2404
Rp2405
(dp2406
g19
I24337
sg27
Nsg28
Nsg29
Nsbsg30
I3
sg31
F24338.5
sbs(g8
S'\xba\xc3'
p2407
tp2408
g0
(g14
g2
Ntp2409
Rp2410
(dp2411
g18
F0.5
sg19
I24337
sg20
g0
(g21
g22
(dp2412
I0
I19424
sI1
I4913
stp2413
Rp2414
(dp2415
g19
I24337
sg27
Nsg28
Nsg29
Nsbsg30
I3
sg31
F24338.5
sbs(g9
S'\xcf\xd6\xd4\xda'
p2416
tp2417
g0
(g14
g2
Ntp2418
Rp2419
(dp2420
g18
F0.5
sg19
I1422
sg20
g0
(g21
g22
(dp2421
I0
I1272
sI1
I150
stp2422
Rp2423
(dp2424
g19
I1422
sg27
Nsg28
Nsg29
Nsbsg30
I3
sg31
F1423.5
sbs(g9
S'\xbe\xf5\xb5\xc3'
p2425
tp2426
g0
(g14
g2
Ntp2427
Rp2428
(dp2429
g18
F0.5
sg19
I1422
sg20
g0
(g21
g22
(dp2430
I0
I1382
sI1
I40
stp2431
Rp2432
(dp2433
g19
I1422
sg27
Nsg28
Nsg29
Nsbsg30
I3
sg31
F1423.5
sbs(g8
S'\xb1\xa8\xb5\xc0'
p2434
tp2435
g0
(g14
g2
Ntp2436
Rp2437
(dp2438
g18
F0.5
sg19
I24337
sg20
g0
(g21
g22
(dp2439
I0
I23607
sI1
I730
stp2440
Rp2441
(dp2442
g19
I24337
sg27
Nsg28
Nsg29
Nsbsg30
I3
sg31
F24338.5
sbs(g8
S'='
p2443
tp2444
g0
(g14
g2
Ntp2445
Rp2446
(dp2447
g18
F0.5
sg19
I24337
sg20
g0
(g21
g22
(dp2448
I0
I23083
sI1
I1254
stp2449
Rp2450
(dp2451
g19
I24337
sg27
Nsg28
Nsg29
Nsbsg30
I3
sg31
F24338.5
sbs(g9
S'\xa3\xa9'
p2452
tp2453
g0
(g14
g2
Ntp2454
Rp2455
(dp2456
g18
F0.5
sg19
I1422
sg20
g0
(g21
g22
(dp2457
I0
I1349
sI1
I73
stp2458
Rp2459
(dp2460
g19
I1422
sg27
Nsg28
Nsg29
Nsbsg30
I3
sg31
F1423.5
sbs(g9
S'2014'
p2461
tp2462
g0
(g14
g2
Ntp2463
Rp2464
(dp2465
g18
F0.5
sg19
I1422
sg20
g0
(g21
g22
(dp2466
I0
I1368
sI1
I54
stp2467
Rp2468
(dp2469
g19
I1422
sg27
Nsg28
Nsg29
Nsbsg30
I3
sg31
F1423.5
sbs(g9
S'\xb5\xc3\xb5\xbd'
p2470
tp2471
g0
(g14
g2
Ntp2472
Rp2473
(dp2474
g18
F0.5
sg19
I1422
sg20
g0
(g21
g22
(dp2475
I0
I1388
sI1
I34
stp2476
Rp2477
(dp2478
g19
I1422
sg27
Nsg28
Nsg29
Nsbsg30
I3
sg31
F1423.5
sbs(g8
S'\xc9\xea'
p2479
tp2480
g0
(g14
g2
Ntp2481
Rp2482
(dp2483
g18
F0.5
sg19
I24337
sg20
g0
(g21
g22
(dp2484
I0
I21933
sI1
I2404
stp2485
Rp2486
(dp2487
g19
I24337
sg27
Nsg28
Nsg29
Nsbsg30
I3
sg31
F24338.5
sbs(g8
S'\xb4\xf3\xcb\xc4'
p2488
tp2489
g0
(g14
g2
Ntp2490
Rp2491
(dp2492
g18
F0.5
sg19
I24337
sg20
g0
(g21
g22
(dp2493
I0
I19792
sI1
I4545
stp2494
Rp2495
(dp2496
g19
I24337
sg27
Nsg28
Nsg29
Nsbsg30
I3
sg31
F24338.5
sbs(g9
S'\xcd\xc6\xbc\xf6'
p2497
tp2498
g0
(g14
g2
Ntp2499
Rp2500
(dp2501
g18
F0.5
sg19
I1422
sg20
g0
(g21
g22
(dp2502
I0
I1348
sI1
I74
stp2503
Rp2504
(dp2505
g19
I1422
sg27
Nsg28
Nsg29
Nsbsg30
I3
sg31
F1423.5
sbs(g9
S'bbs'
p2506
tp2507
g0
(g14
g2
Ntp2508
Rp2509
(dp2510
g18
F0.5
sg19
I1422
sg20
g0
(g21
g22
(dp2511
I0
I1247
sI1
I175
stp2512
Rp2513
(dp2514
g19
I1422
sg27
Nsg28
Nsg29
Nsbsg30
I3
sg31
F1423.5
sbs(g9
S'\xc4\xbf\xc7\xb0'
p2515
tp2516
g0
(g14
g2
Ntp2517
Rp2518
(dp2519
g18
F0.5
sg19
I1422
sg20
g0
(g21
g22
(dp2520
I0
I1327
sI1
I95
stp2521
Rp2522
(dp2523
g19
I1422
sg27
Nsg28
Nsg29
Nsbsg30
I3
sg31
F1423.5
sbs(g8
S'url'
p2524
tp2525
g0
(g14
g2
Ntp2526
Rp2527
(dp2528
g18
F0.5
sg19
I24337
sg20
g0
(g21
g22
(dp2529
I0
I24214
sI1
I123
stp2530
Rp2531
(dp2532
g19
I24337
sg27
Nsg28
Nsg29
Nsbsg30
I3
sg31
F24338.5
sbs(g9
S'\xbb\xb9\xca\xc7'
p2533
tp2534
g0
(g14
g2
Ntp2535
Rp2536
(dp2537
g18
F0.5
sg19
I1422
sg20
g0
(g21
g22
(dp2538
I0
I1388
sI1
I34
stp2539
Rp2540
(dp2541
g19
I1422
sg27
Nsg28
Nsg29
Nsbsg30
I3
sg31
F1423.5
sbs(g8
S'\xb6\xd4'
p2542
tp2543
g0
(g14
g2
Ntp2544
Rp2545
(dp2546
g18
F0.5
sg19
I24337
sg20
g0
(g21
g22
(dp2547
I0
I22878
sI1
I1459
stp2548
Rp2549
(dp2550
g19
I24337
sg27
Nsg28
Nsg29
Nsbsg30
I3
sg31
F24338.5
sbs(g8
S'\xc0\xb2'
p2551
tp2552
g0
(g14
g2
Ntp2553
Rp2554
(dp2555
g18
F0.5
sg19
I24337
sg20
g0
(g21
g22
(dp2556
I0
I23537
sI1
I800
stp2557
Rp2558
(dp2559
g19
I24337
sg27
Nsg28
Nsg29
Nsbsg30
I3
sg31
F24338.5
sbs(g8
S'\xb5\xd8'
p2560
tp2561
g0
(g14
g2
Ntp2562
Rp2563
(dp2564
g18
F0.5
sg19
I24337
sg20
g0
(g21
g22
(dp2565
I0
I20653
sI1
I3684
stp2566
Rp2567
(dp2568
g19
I24337
sg27
Nsg28
Nsg29
Nsbsg30
I3
sg31
F24338.5
sbs(g8
S'\xcd\xac\xd1\xa7'
p2569
tp2570
g0
(g14
g2
Ntp2571
Rp2572
(dp2573
g18
F0.5
sg19
I24337
sg20
g0
(g21
g22
(dp2574
I0
I20452
sI1
I3885
stp2575
Rp2576
(dp2577
g19
I24337
sg27
Nsg28
Nsg29
Nsbsg30
I3
sg31
F24338.5
sbs(g9
S'\xd2\xbb\xb8\xf6'
p2578
tp2579
g0
(g14
g2
Ntp2580
Rp2581
(dp2582
g18
F0.5
sg19
I1422
sg20
g0
(g21
g22
(dp2583
I0
I1363
sI1
I59
stp2584
Rp2585
(dp2586
g19
I1422
sg27
Nsg28
Nsg29
Nsbsg30
I3
sg31
F1423.5
sbs(g9
S'\xbb\xb9'
p2587
tp2588
g0
(g14
g2
Ntp2589
Rp2590
(dp2591
g18
F0.5
sg19
I1422
sg20
g0
(g21
g22
(dp2592
I0
I1340
sI1
I82
stp2593
Rp2594
(dp2595
g19
I1422
sg27
Nsg28
Nsg29
Nsbsg30
I3
sg31
F1423.5
sbs(g9
S'?'
p2596
tp2597
g0
(g14
g2
Ntp2598
Rp2599
(dp2600
g18
F0.5
sg19
I1422
sg20
g0
(g21
g22
(dp2601
I0
I1403
sI1
I19
stp2602
Rp2603
(dp2604
g19
I1422
sg27
Nsg28
Nsg29
Nsbsg30
I3
sg31
F1423.5
sbs(g9
S'\xbb\xf2\xd5\xdf'
p2605
tp2606
g0
(g14
g2
Ntp2607
Rp2608
(dp2609
g18
F0.5
sg19
I1422
sg20
g0
(g21
g22
(dp2610
I0
I1382
sI1
I40
stp2611
Rp2612
(dp2613
g19
I1422
sg27
Nsg28
Nsg29
Nsbsg30
I3
sg31
F1423.5
sbs(g9
S'\xb8\xf8'
p2614
tp2615
g0
(g14
g2
Ntp2616
Rp2617
(dp2618
g18
F0.5
sg19
I1422
sg20
g0
(g21
g22
(dp2619
I0
I1362
sI1
I60
stp2620
Rp2621
(dp2622
g19
I1422
sg27
Nsg28
Nsg29
Nsbsg30
I3
sg31
F1423.5
sbs(g9
S'\xd1\xd0\xbe\xbf\xc9\xfa'
p2623
tp2624
g0
(g14
g2
Ntp2625
Rp2626
(dp2627
g18
F0.5
sg19
I1422
sg20
g0
(g21
g22
(dp2628
I0
I1377
sI1
I45
stp2629
Rp2630
(dp2631
g19
I1422
sg27
Nsg28
Nsg29
Nsbsg30
I3
sg31
F1423.5
sbs(g8
S'\xcb\xb6\xca\xbf'
p2632
tp2633
g0
(g14
g2
Ntp2634
Rp2635
(dp2636
g18
F0.5
sg19
I24337
sg20
g0
(g21
g22
(dp2637
I0
I22270
sI1
I2067
stp2638
Rp2639
(dp2640
g19
I24337
sg27
Nsg28
Nsg29
Nsbsg30
I3
sg31
F24338.5
sbs(g8
S'13fall'
p2641
tp2642
g0
(g14
g2
Ntp2643
Rp2644
(dp2645
g18
F0.5
sg19
I24337
sg20
g0
(g21
g22
(dp2646
I0
I23126
sI1
I1211
stp2647
Rp2648
(dp2649
g19
I24337
sg27
Nsg28
Nsg29
Nsbsg30
I3
sg31
F24338.5
sbs(g9
S'\xd7\xa8\xd2\xb5'
p2650
tp2651
g0
(g14
g2
Ntp2652
Rp2653
(dp2654
g18
F0.5
sg19
I1422
sg20
g0
(g21
g22
(dp2655
I0
I1045
sI1
I377
stp2656
Rp2657
(dp2658
g19
I1422
sg27
Nsg28
Nsg29
Nsbsg30
I3
sg31
F1423.5
sbs(g8
S'\xcf\xd6\xd4\xda'
p2659
tp2660
g0
(g14
g2
Ntp2661
Rp2662
(dp2663
g18
F0.5
sg19
I24337
sg20
g0
(g21
g22
(dp2664
I0
I19233
sI1
I5104
stp2665
Rp2666
(dp2667
g19
I24337
sg27
Nsg28
Nsg29
Nsbsg30
I3
sg31
F24338.5
sbs(g9
S'\xb4\xf3\xbc\xd2'
p2668
tp2669
g0
(g14
g2
Ntp2670
Rp2671
(dp2672
g18
F0.5
sg19
I1422
sg20
g0
(g21
g22
(dp2673
I0
I1199
sI1
I223
stp2674
Rp2675
(dp2676
g19
I1422
sg27
Nsg28
Nsg29
Nsbsg30
I3
sg31
F1423.5
sbs(g9
S'\xd7\xd4\xbc\xba'
p2677
tp2678
g0
(g14
g2
Ntp2679
Rp2680
(dp2681
g18
F0.5
sg19
I1422
sg20
g0
(g21
g22
(dp2682
I0
I1353
sI1
I69
stp2683
Rp2684
(dp2685
g19
I1422
sg27
Nsg28
Nsg29
Nsbsg30
I3
sg31
F1423.5
sbs(g8
S'\xca\xc7\xb4\xd3'
p2686
tp2687
g0
(g14
g2
Ntp2688
Rp2689
(dp2690
g18
F0.5
sg19
I24337
sg20
g0
(g21
g22
(dp2691
I0
I21656
sI1
I2681
stp2692
Rp2693
(dp2694
g19
I24337
sg27
Nsg28
Nsg29
Nsbsg30
I3
sg31
F24338.5
sbs(g9
S'='
p2695
tp2696
g0
(g14
g2
Ntp2697
Rp2698
(dp2699
g18
F0.5
sg19
I1422
sg20
g0
(g21
g22
(dp2700
I0
I1329
sI1
I93
stp2701
Rp2702
(dp2703
g19
I1422
sg27
Nsg28
Nsg29
Nsbsg30
I3
sg31
F1423.5
sbs(g8
S'\xa3\xac'
p2704
tp2705
g0
(g14
g2
Ntp2706
Rp2707
(dp2708
g18
F0.5
sg19
I24337
sg20
g0
(g21
g22
(dp2709
I0
I2778
sI1
I21559
stp2710
Rp2711
(dp2712
g19
I24337
sg27
Nsg28
Nsg29
Nsbsg30
I3
sg31
F24338.5
sbs(g9
S'qq'
p2713
tp2714
g0
(g14
g2
Ntp2715
Rp2716
(dp2717
g18
F0.5
sg19
I1422
sg20
g0
(g21
g22
(dp2718
I0
I1358
sI1
I64
stp2719
Rp2720
(dp2721
g19
I1422
sg27
Nsg28
Nsg29
Nsbsg30
I3
sg31
F1423.5
sbs(g8
S'\xbf\xaa\xca\xbc'
p2722
tp2723
g0
(g14
g2
Ntp2724
Rp2725
(dp2726
g18
F0.5
sg19
I24337
sg20
g0
(g21
g22
(dp2727
I0
I23445
sI1
I892
stp2728
Rp2729
(dp2730
g19
I24337
sg27
Nsg28
Nsg29
Nsbsg30
I3
sg31
F24338.5
sbs(g8
S'2014'
p2731
tp2732
g0
(g14
g2
Ntp2733
Rp2734
(dp2735
g18
F0.5
sg19
I24337
sg20
g0
(g21
g22
(dp2736
I0
I22741
sI1
I1596
stp2737
Rp2738
(dp2739
g19
I24337
sg27
Nsg28
Nsg29
Nsbsg30
I3
sg31
F24338.5
sbs(g8
S'\xb1\xbe\xbf\xc6\xd7\xa8\xd2\xb5'
p2740
tp2741
g0
(g14
g2
Ntp2742
Rp2743
(dp2744
g18
F0.5
sg19
I24337
sg20
g0
(g21
g22
(dp2745
I0
I21938
sI1
I2399
stp2746
Rp2747
(dp2748
g19
I24337
sg27
Nsg28
Nsg29
Nsbsg30
I3
sg31
F24338.5
sbs(g8
S'\xc4\xea'
p2749
tp2750
g0
(g14
g2
Ntp2751
Rp2752
(dp2753
g18
F0.5
sg19
I24337
sg20
g0
(g21
g22
(dp2754
I0
I21871
sI1
I2466
stp2755
Rp2756
(dp2757
g19
I24337
sg27
Nsg28
Nsg29
Nsbsg30
I3
sg31
F24338.5
sbs(g8
S'\xb7\xbd\xc3\xe6'
p2758
tp2759
g0
(g14
g2
Ntp2760
Rp2761
(dp2762
g18
F0.5
sg19
I24337
sg20
g0
(g21
g22
(dp2763
I0
I22989
sI1
I1348
stp2764
Rp2765
(dp2766
g19
I24337
sg27
Nsg28
Nsg29
Nsbsg30
I3
sg31
F24338.5
sbs(g8
S'ee'
p2767
tp2768
g0
(g14
g2
Ntp2769
Rp2770
(dp2771
g18
F0.5
sg19
I24337
sg20
g0
(g21
g22
(dp2772
I0
I19368
sI1
I4969
stp2773
Rp2774
(dp2775
g19
I24337
sg27
Nsg28
Nsg29
Nsbsg30
I3
sg31
F24338.5
sbs(g8
S'}'
p2776
tp2777
g0
(g14
g2
Ntp2778
Rp2779
(dp2780
g18
F0.5
sg19
I24337
sg20
g0
(g21
g22
(dp2781
I0
I23562
sI1
I775
stp2782
Rp2783
(dp2784
g19
I24337
sg27
Nsg28
Nsg29
Nsbsg30
I3
sg31
F24338.5
sbs(g8
S'\xbe\xcd\xd2\xb5'
p2785
tp2786
g0
(g14
g2
Ntp2787
Rp2788
(dp2789
g18
F0.5
sg19
I24337
sg20
g0
(g21
g22
(dp2790
I0
I22958
sI1
I1379
stp2791
Rp2792
(dp2793
g19
I24337
sg27
Nsg28
Nsg29
Nsbsg30
I3
sg31
F24338.5
sbs(g8
S'\xd5\xe2\xc0\xef'
p2794
tp2795
g0
(g14
g2
Ntp2796
Rp2797
(dp2798
g18
F0.5
sg19
I24337
sg20
g0
(g21
g22
(dp2799
I0
I19294
sI1
I5043
stp2800
Rp2801
(dp2802
g19
I24337
sg27
Nsg28
Nsg29
Nsbsg30
I3
sg31
F24338.5
sbs(g8
S'\xb7\xa2\xcf\xd6'
p2803
tp2804
g0
(g14
g2
Ntp2805
Rp2806
(dp2807
g18
F0.5
sg19
I24337
sg20
g0
(g21
g22
(dp2808
I0
I22687
sI1
I1650
stp2809
Rp2810
(dp2811
g19
I24337
sg27
Nsg28
Nsg29
Nsbsg30
I3
sg31
F24338.5
sbs(g8
S'\xcf\xa3\xcd\xfb'
p2812
tp2813
g0
(g14
g2
Ntp2814
Rp2815
(dp2816
g18
F0.5
sg19
I24337
sg20
g0
(g21
g22
(dp2817
I0
I14132
sI1
I10205
stp2818
Rp2819
(dp2820
g19
I24337
sg27
Nsg28
Nsg29
Nsbsg30
I3
sg31
F24338.5
sbs(g8
S'\xb1\xbe\xbf\xc6'
p2821
tp2822
g0
(g14
g2
Ntp2823
Rp2824
(dp2825
g18
F0.5
sg19
I24337
sg20
g0
(g21
g22
(dp2826
I0
I19346
sI1
I4991
stp2827
Rp2828
(dp2829
g19
I24337
sg27
Nsg28
Nsg29
Nsbsg30
I3
sg31
F24338.5
sbs(g9
S'\xb9\xa4\xd7\xf7'
p2830
tp2831
g0
(g14
g2
Ntp2832
Rp2833
(dp2834
g18
F0.5
sg19
I1422
sg20
g0
(g21
g22
(dp2835
I0
I1309
sI1
I113
stp2836
Rp2837
(dp2838
g19
I1422
sg27
Nsg28
Nsg29
Nsbsg30
I3
sg31
F1423.5
sbs(g9
S'\xb5\xd8\xc0\xef'
p2839
tp2840
g0
(g14
g2
Ntp2841
Rp2842
(dp2843
g18
F0.5
sg19
I1422
sg20
g0
(g21
g22
(dp2844
I0
I1381
sI1
I41
stp2845
Rp2846
(dp2847
g19
I1422
sg27
Nsg28
Nsg29
Nsbsg30
I3
sg31
F1423.5
sbs(g8
S':'
p2848
tp2849
g0
(g14
g2
Ntp2850
Rp2851
(dp2852
g18
F0.5
sg19
I24337
sg20
g0
(g21
g22
(dp2853
I0
I21996
sI1
I2341
stp2854
Rp2855
(dp2856
g19
I24337
sg27
Nsg28
Nsg29
Nsbsg30
I3
sg31
F24338.5
sbs(g8
S'\xd2\xbb\xb8\xf6'
p2857
tp2858
g0
(g14
g2
Ntp2859
Rp2860
(dp2861
g18
F0.5
sg19
I24337
sg20
g0
(g21
g22
(dp2862
I0
I22437
sI1
I1900
stp2863
Rp2864
(dp2865
g19
I24337
sg27
Nsg28
Nsg29
Nsbsg30
I3
sg31
F24338.5
sbs(g9
S'\xd1\xa7\xb3\xa4'
p2866
tp2867
g0
(g14
g2
Ntp2868
Rp2869
(dp2870
g18
F0.5
sg19
I1422
sg20
g0
(g21
g22
(dp2871
I0
I1376
sI1
I46
stp2872
Rp2873
(dp2874
g19
I1422
sg27
Nsg28
Nsg29
Nsbsg30
I3
sg31
F1423.5
sbs(g9
S'\xd5\xd2'
p2875
tp2876
g0
(g14
g2
Ntp2877
Rp2878
(dp2879
g18
F0.5
sg19
I1422
sg20
g0
(g21
g22
(dp2880
I0
I1340
sI1
I82
stp2881
Rp2882
(dp2883
g19
I1422
sg27
Nsg28
Nsg29
Nsbsg30
I3
sg31
F1423.5
sbs(g9
S'http'
p2884
tp2885
g0
(g14
g2
Ntp2886
Rp2887
(dp2888
g18
F0.5
sg19
I1422
sg20
g0
(g21
g22
(dp2889
I0
I1398
sI1
I24
stp2890
Rp2891
(dp2892
g19
I1422
sg27
Nsg28
Nsg29
Nsbsg30
I3
sg31
F1423.5
sbs(g8
S'\xd2\xbb\xd6\xb1'
p2893
tp2894
g0
(g14
g2
Ntp2895
Rp2896
(dp2897
g18
F0.5
sg19
I24337
sg20
g0
(g21
g22
(dp2898
I0
I23259
sI1
I1078
stp2899
Rp2900
(dp2901
g19
I24337
sg27
Nsg28
Nsg29
Nsbsg30
I3
sg31
F24338.5
sbs(g9
S'14fall'
p2902
tp2903
g0
(g14
g2
Ntp2904
Rp2905
(dp2906
g18
F0.5
sg19
I1422
sg20
g0
(g21
g22
(dp2907
I0
I1383
sI1
I39
stp2908
Rp2909
(dp2910
g19
I1422
sg27
Nsg28
Nsg29
Nsbsg30
I3
sg31
F1423.5
sbs(g9
S'\xbd\xf1\xc4\xea'
p2911
tp2912
g0
(g14
g2
Ntp2913
Rp2914
(dp2915
g18
F0.5
sg19
I1422
sg20
g0
(g21
g22
(dp2916
I0
I1294
sI1
I128
stp2917
Rp2918
(dp2919
g19
I1422
sg27
Nsg28
Nsg29
Nsbsg30
I3
sg31
F1423.5
sbs(g9
S'\xb0\xef\xd6\xfa'
p2920
tp2921
g0
(g14
g2
Ntp2922
Rp2923
(dp2924
g18
F0.5
sg19
I1422
sg20
g0
(g21
g22
(dp2925
I0
I1371
sI1
I51
stp2926
Rp2927
(dp2928
g19
I1422
sg27
Nsg28
Nsg29
Nsbsg30
I3
sg31
F1423.5
sbs(g9
S'www'
p2929
tp2930
g0
(g14
g2
Ntp2931
Rp2932
(dp2933
g18
F0.5
sg19
I1422
sg20
g0
(g21
g22
(dp2934
I0
I1400
sI1
I22
stp2935
Rp2936
(dp2937
g19
I1422
sg27
Nsg28
Nsg29
Nsbsg30
I3
sg31
F1423.5
sbs(g9
S'\xc7\xf3'
p2938
tp2939
g0
(g14
g2
Ntp2940
Rp2941
(dp2942
g18
F0.5
sg19
I1422
sg20
g0
(g21
g22
(dp2943
I0
I1381
sI1
I41
stp2944
Rp2945
(dp2946
g19
I1422
sg27
Nsg28
Nsg29
Nsbsg30
I3
sg31
F1423.5
sbs(g8
S'\xca\xb2\xc3\xb4'
p2947
tp2948
g0
(g14
g2
Ntp2949
Rp2950
(dp2951
g18
F0.5
sg19
I24337
sg20
g0
(g21
g22
(dp2952
I0
I23353
sI1
I984
stp2953
Rp2954
(dp2955
g19
I24337
sg27
Nsg28
Nsg29
Nsbsg30
I3
sg31
F24338.5
sbs(g8
S'\xba\xdc\xb6\xe0'
p2956
tp2957
g0
(g14
g2
Ntp2958
Rp2959
(dp2960
g18
F0.5
sg19
I24337
sg20
g0
(g21
g22
(dp2961
I0
I22427
sI1
I1910
stp2962
Rp2963
(dp2964
g19
I24337
sg27
Nsg28
Nsg29
Nsbsg30
I3
sg31
F24338.5
sbs(g8
S'\xba\xcd'
p2965
tp2966
g0
(g14
g2
Ntp2967
Rp2968
(dp2969
g18
F0.5
sg19
I24337
sg20
g0
(g21
g22
(dp2970
I0
I18463
sI1
I5874
stp2971
Rp2972
(dp2973
g19
I24337
sg27
Nsg28
Nsg29
Nsbsg30
I3
sg31
F24338.5
sbs(g8
S'\xb2\xbb'
p2974
tp2975
g0
(g14
g2
Ntp2976
Rp2977
(dp2978
g18
F0.5
sg19
I24337
sg20
g0
(g21
g22
(dp2979
I0
I22549
sI1
I1788
stp2980
Rp2981
(dp2982
g19
I24337
sg27
Nsg28
Nsg29
Nsbsg30
I3
sg31
F24338.5
sbs(g9
S'\xc0\xb4'
p2983
tp2984
g0
(g14
g2
Ntp2985
Rp2986
(dp2987
g18
F0.5
sg19
I1422
sg20
g0
(g21
g22
(dp2988
I0
I1276
sI1
I146
stp2989
Rp2990
(dp2991
g19
I1422
sg27
Nsg28
Nsg29
Nsbsg30
I3
sg31
F1423.5
sbs(g9
S'\xbd\xd0'
p2992
tp2993
g0
(g14
g2
Ntp2994
Rp2995
(dp2996
g18
F0.5
sg19
I1422
sg20
g0
(g21
g22
(dp2997
I0
I1000
sI1
I422
stp2998
Rp2999
(dp3000
g19
I1422
sg27
Nsg28
Nsg29
Nsbsg30
I3
sg31
F1423.5
sbs(g8
S'\xb4\xf3\xbc\xd2'
p3001
tp3002
g0
(g14
g2
Ntp3003
Rp3004
(dp3005
g18
F0.5
sg19
I24337
sg20
g0
(g21
g22
(dp3006
I0
I18078
sI1
I6259
stp3007
Rp3008
(dp3009
g19
I24337
sg27
Nsg28
Nsg29
Nsbsg30
I3
sg31
F24338.5
sbs(g8
S'\xd0\xc2\xc8\xcb'
p3010
tp3011
g0
(g14
g2
Ntp3012
Rp3013
(dp3014
g18
F0.5
sg19
I24337
sg20
g0
(g21
g22
(dp3015
I0
I23478
sI1
I859
stp3016
Rp3017
(dp3018
g19
I24337
sg27
Nsg28
Nsg29
Nsbsg30
I3
sg31
F24338.5
sbs(g8
S'\xbf\xc9\xd2\xd4'
p3019
tp3020
g0
(g14
g2
Ntp3021
Rp3022
(dp3023
g18
F0.5
sg19
I24337
sg20
g0
(g21
g22
(dp3024
I0
I22781
sI1
I1556
stp3025
Rp3026
(dp3027
g19
I24337
sg27
Nsg28
Nsg29
Nsbsg30
I3
sg31
F24338.5
sbs(g8
S'\xa3\xbf'
p3028
tp3029
g0
(g14
g2
Ntp3030
Rp3031
(dp3032
g18
F0.5
sg19
I24337
sg20
g0
(g21
g22
(dp3033
I0
I23738
sI1
I599
stp3034
Rp3035
(dp3036
g19
I24337
sg27
Nsg28
Nsg29
Nsbsg30
I3
sg31
F24338.5
sbs(g8
S'\xb0\xa1'
p3037
tp3038
g0
(g14
g2
Ntp3039
Rp3040
(dp3041
g18
F0.5
sg19
I24337
sg20
g0
(g21
g22
(dp3042
I0
I22711
sI1
I1626
stp3043
Rp3044
(dp3045
g19
I24337
sg27
Nsg28
Nsg29
Nsbsg30
I3
sg31
F24338.5
sbs(g9
S'\xc8\xeb\xd1\xa7'
p3046
tp3047
g0
(g14
g2
Ntp3048
Rp3049
(dp3050
g18
F0.5
sg19
I1422
sg20
g0
(g21
g22
(dp3051
I0
I1333
sI1
I89
stp3052
Rp3053
(dp3054
g19
I1422
sg27
Nsg28
Nsg29
Nsbsg30
I3
sg31
F1423.5
sbs(g9
S'\xd4\xda'
p3055
tp3056
g0
(g14
g2
Ntp3057
Rp3058
(dp3059
g18
F0.5
sg19
I1422
sg20
g0
(g21
g22
(dp3060
I0
I1098
sI1
I324
stp3061
Rp3062
(dp3063
g19
I1422
sg27
Nsg28
Nsg29
Nsbsg30
I3
sg31
F1423.5
sbs(g9
S'ee'
p3064
tp3065
g0
(g14
g2
Ntp3066
Rp3067
(dp3068
g18
F0.5
sg19
I1422
sg20
g0
(g21
g22
(dp3069
I0
I1271
sI1
I151
stp3070
Rp3071
(dp3072
g19
I1422
sg27
Nsg28
Nsg29
Nsbsg30
I3
sg31
F1423.5
sbs(g9
S'redirect'
p3073
tp3074
g0
(g14
g2
Ntp3075
Rp3076
(dp3077
g18
F0.5
sg19
I1422
sg20
g0
(g21
g22
(dp3078
I0
I1408
sI1
I14
stp3079
Rp3080
(dp3081
g19
I1422
sg27
Nsg28
Nsg29
Nsbsg30
I3
sg31
F1423.5
sbs(g9
S'\xd0\xbb\xd0\xbb'
p3082
tp3083
g0
(g14
g2
Ntp3084
Rp3085
(dp3086
g18
F0.5
sg19
I1422
sg20
g0
(g21
g22
(dp3087
I0
I1367
sI1
I55
stp3088
Rp3089
(dp3090
g19
I1422
sg27
Nsg28
Nsg29
Nsbsg30
I3
sg31
F1423.5
sbs(g9
S'\xcc\xab'
p3091
tp3092
g0
(g14
g2
Ntp3093
Rp3094
(dp3095
g18
F0.5
sg19
I1422
sg20
g0
(g21
g22
(dp3096
I0
I1389
sI1
I33
stp3097
Rp3098
(dp3099
g19
I1422
sg27
Nsg28
Nsg29
Nsbsg30
I3
sg31
F1423.5
sbs(g8
S'\xd1\xa7\xcf\xb0'
p3100
tp3101
g0
(g14
g2
Ntp3102
Rp3103
(dp3104
g18
F0.5
sg19
I24337
sg20
g0
(g21
g22
(dp3105
I0
I22624
sI1
I1713
stp3106
Rp3107
(dp3108
g19
I24337
sg27
Nsg28
Nsg29
Nsbsg30
I3
sg31
F24338.5
sbs(g9
S'\xb1\xbe\xbf\xc6'
p3109
tp3110
g0
(g14
g2
Ntp3111
Rp3112
(dp3113
g18
F0.5
sg19
I1422
sg20
g0
(g21
g22
(dp3114
I0
I1286
sI1
I136
stp3115
Rp3116
(dp3117
g19
I1422
sg27
Nsg28
Nsg29
Nsbsg30
I3
sg31
F1423.5
sbs(g8
S'\xd2\xbb\xcf\xc2'
p3118
tp3119
g0
(g14
g2
Ntp3120
Rp3121
(dp3122
g18
F0.5
sg19
I24337
sg20
g0
(g21
g22
(dp3123
I0
I23261
sI1
I1076
stp3124
Rp3125
(dp3126
g19
I24337
sg27
Nsg28
Nsg29
Nsbsg30
I3
sg31
F24338.5
sbs(g9
S'~'
p3127
tp3128
g0
(g14
g2
Ntp3129
Rp3130
(dp3131
g18
F0.5
sg19
I1422
sg20
g0
(g21
g22
(dp3132
I0
I1213
sI1
I209
stp3133
Rp3134
(dp3135
g19
I1422
sg27
Nsg28
Nsg29
Nsbsg30
I3
sg31
F1423.5
sbs(g8
S'\xd2\xbb\xc4\xb6'
p3136
tp3137
g0
(g14
g2
Ntp3138
Rp3139
(dp3140
g18
F0.5
sg19
I24337
sg20
g0
(g21
g22
(dp3141
I0
I20243
sI1
I4094
stp3142
Rp3143
(dp3144
g19
I24337
sg27
Nsg28
Nsg29
Nsbsg30
I3
sg31
F24338.5
sbs(g8
S'\xb4\xd3'
p3145
tp3146
g0
(g14
g2
Ntp3147
Rp3148
(dp3149
g18
F0.5
sg19
I24337
sg20
g0
(g21
g22
(dp3150
I0
I19542
sI1
I4795
stp3151
Rp3152
(dp3153
g19
I24337
sg27
Nsg28
Nsg29
Nsbsg30
I3
sg31
F24338.5
sbs(g9
S'\xd2\xd1\xbe\xad'
p3154
tp3155
g0
(g14
g2
Ntp3156
Rp3157
(dp3158
g18
F0.5
sg19
I1422
sg20
g0
(g21
g22
(dp3159
I0
I1355
sI1
I67
stp3160
Rp3161
(dp3162
g19
I1422
sg27
Nsg28
Nsg29
Nsbsg30
I3
sg31
F1423.5
sbs(g8
S'\xc8\xa5'
p3163
tp3164
g0
(g14
g2
Ntp3165
Rp3166
(dp3167
g18
F0.5
sg19
I24337
sg20
g0
(g21
g22
(dp3168
I0
I21076
sI1
I3261
stp3169
Rp3170
(dp3171
g19
I24337
sg27
Nsg28
Nsg29
Nsbsg30
I3
sg31
F24338.5
sbs(g8
S'\xd7\xbc\xb1\xb8'
p3172
tp3173
g0
(g14
g2
Ntp3174
Rp3175
(dp3176
g18
F0.5
sg19
I24337
sg20
g0
(g21
g22
(dp3177
I0
I18337
sI1
I6000
stp3178
Rp3179
(dp3180
g19
I24337
sg27
Nsg28
Nsg29
Nsbsg30
I3
sg31
F24338.5
sbs(g9
S'1point3acres'
p3181
tp3182
g0
(g14
g2
Ntp3183
Rp3184
(dp3185
g18
F0.5
sg19
I1422
sg20
g0
(g21
g22
(dp3186
I0
I1399
sI1
I23
stp3187
Rp3188
(dp3189
g19
I1422
sg27
Nsg28
Nsg29
Nsbsg30
I3
sg31
F1423.5
sbs(g9
S'\xb5\xbd'
p3190
tp3191
g0
(g14
g2
Ntp3192
Rp3193
(dp3194
g18
F0.5
sg19
I1422
sg20
g0
(g21
g22
(dp3195
I0
I1270
sI1
I152
stp3196
Rp3197
(dp3198
g19
I1422
sg27
Nsg28
Nsg29
Nsbsg30
I3
sg31
F1423.5
sbs(g9
S''
p3199
tp3200
g0
(g14
g2
Ntp3201
Rp3202
(dp3203
g18
F0.5
sg19
I1422
sg20
g0
(g21
g22
(dp3204
I0
I1422
stp3205
Rp3206
(dp3207
g19
I1422
sg27
Nsg28
Nsg29
Nsbsg30
I2
sg31
F1423.0
sbs(g9
S'\xc8\xcb'
p3208
tp3209
g0
(g14
g2
Ntp3210
Rp3211
(dp3212
g18
F0.5
sg19
I1422
sg20
g0
(g21
g22
(dp3213
I0
I1380
sI1
I42
stp3214
Rp3215
(dp3216
g19
I1422
sg27
Nsg28
Nsg29
Nsbsg30
I3
sg31
F1423.5
sbs(g8
S'-'
p3217
tp3218
g0
(g14
g2
Ntp3219
Rp3220
(dp3221
g18
F0.5
sg19
I24337
sg20
g0
(g21
g22
(dp3222
I0
I22534
sI1
I1803
stp3223
Rp3224
(dp3225
g19
I24337
sg27
Nsg28
Nsg29
Nsbsg30
I3
sg31
F24338.5
sbs(g8
S'\xbd\xd0'
p3226
tp3227
g0
(g14
g2
Ntp3228
Rp3229
(dp3230
g18
F0.5
sg19
I24337
sg20
g0
(g21
g22
(dp3231
I0
I10248
sI1
I14089
stp3232
Rp3233
(dp3234
g19
I24337
sg27
Nsg28
Nsg29
Nsbsg30
I3
sg31
F24338.5
sbs(g8
S'\xa3\xa9'
p3235
tp3236
g0
(g14
g2
Ntp3237
Rp3238
(dp3239
g18
F0.5
sg19
I24337
sg20
g0
(g21
g22
(dp3240
I0
I22541
sI1
I1796
stp3241
Rp3242
(dp3243
g19
I24337
sg27
Nsg28
Nsg29
Nsbsg30
I3
sg31
F24338.5
sbs(g9
S'\xa3\xbf'
p3244
tp3245
g0
(g14
g2
Ntp3246
Rp3247
(dp3248
g18
F0.5
sg19
I1422
sg20
g0
(g21
g22
(dp3249
I0
I1366
sI1
I56
stp3250
Rp3251
(dp3252
g19
I1422
sg27
Nsg28
Nsg29
Nsbsg30
I3
sg31
F1423.5
sbs(g9
S'php'
p3253
tp3254
g0
(g14
g2
Ntp3255
Rp3256
(dp3257
g18
F0.5
sg19
I1422
sg20
g0
(g21
g22
(dp3258
I0
I1407
sI1
I15
stp3259
Rp3260
(dp3261
g19
I1422
sg27
Nsg28
Nsg29
Nsbsg30
I3
sg31
F1423.5
sbs(g8
S'\xd3\xc9'
p3262
tp3263
g0
(g14
g2
Ntp3264
Rp3265
(dp3266
g18
F0.5
sg19
I24337
sg20
g0
(g21
g22
(dp3267
I0
I23400
sI1
I937
stp3268
Rp3269
(dp3270
g19
I24337
sg27
Nsg28
Nsg29
Nsbsg30
I3
sg31
F24338.5
sbs(g8
S'\xc7\xef\xbc\xbe'
p3271
tp3272
g0
(g14
g2
Ntp3273
Rp3274
(dp3275
g18
F0.5
sg19
I24337
sg20
g0
(g21
g22
(dp3276
I0
I21936
sI1
I2401
stp3277
Rp3278
(dp3279
g19
I24337
sg27
Nsg28
Nsg29
Nsbsg30
I3
sg31
F24338.5
sbs(g8
S'\xc7\xf3'
p3280
tp3281
g0
(g14
g2
Ntp3282
Rp3283
(dp3284
g18
F0.5
sg19
I24337
sg20
g0
(g21
g22
(dp3285
I0
I23732
sI1
I605
stp3286
Rp3287
(dp3288
g19
I24337
sg27
Nsg28
Nsg29
Nsbsg30
I3
sg31
F24338.5
sbs(g8
S'\xa1\xa2'
p3289
tp3290
g0
(g14
g2
Ntp3291
Rp3292
(dp3293
g18
F0.5
sg19
I24337
sg20
g0
(g21
g22
(dp3294
I0
I23417
sI1
I920
stp3295
Rp3296
(dp3297
g19
I24337
sg27
Nsg28
Nsg29
Nsbsg30
I3
sg31
F24338.5
sbs(g9
S'\xb6\xc1'
p3298
tp3299
g0
(g14
g2
Ntp3300
Rp3301
(dp3302
g18
F0.5
sg19
I1422
sg20
g0
(g21
g22
(dp3303
I0
I1311
sI1
I111
stp3304
Rp3305
(dp3306
g19
I1422
sg27
Nsg28
Nsg29
Nsbsg30
I3
sg31
F1423.5
sbs(g8
S'\xcb\xb5'
p3307
tp3308
g0
(g14
g2
Ntp3309
Rp3310
(dp3311
g18
F0.5
sg19
I24337
sg20
g0
(g21
g22
(dp3312
I0
I23395
sI1
I942
stp3313
Rp3314
(dp3315
g19
I24337
sg27
Nsg28
Nsg29
Nsbsg30
I3
sg31
F24338.5
sbs(g9
S'cs'
p3316
tp3317
g0
(g14
g2
Ntp3318
Rp3319
(dp3320
g18
F0.5
sg19
I1422
sg20
g0
(g21
g22
(dp3321
I0
I1273
sI1
I149
stp3322
Rp3323
(dp3324
g19
I1422
sg27
Nsg28
Nsg29
Nsbsg30
I3
sg31
F1423.5
sbs(g8
S'\xc4\xdc'
p3325
tp3326
g0
(g14
g2
Ntp3327
Rp3328
(dp3329
g18
F0.5
sg19
I24337
sg20
g0
(g21
g22
(dp3330
I0
I20185
sI1
I4152
stp3331
Rp3332
(dp3333
g19
I24337
sg27
Nsg28
Nsg29
Nsbsg30
I3
sg31
F24338.5
sbs(g9
S'\xd5\xd2\xb5\xbd'
p3334
tp3335
g0
(g14
g2
Ntp3336
Rp3337
(dp3338
g18
F0.5
sg19
I1422
sg20
g0
(g21
g22
(dp3339
I0
I1380
sI1
I42
stp3340
Rp3341
(dp3342
g19
I1422
sg27
Nsg28
Nsg29
Nsbsg30
I3
sg31
F1423.5
sbs(g8
S'~'
p3343
tp3344
g0
(g14
g2
Ntp3345
Rp3346
(dp3347
g18
F0.5
sg19
I24337
sg20
g0
(g21
g22
(dp3348
I0
I19271
sI1
I5066
stp3349
Rp3350
(dp3351
g19
I24337
sg27
Nsg28
Nsg29
Nsbsg30
I3
sg31
F24338.5
sbs(g8
S'i'
p3352
tp3353
g0
(g14
g2
Ntp3354
Rp3355
(dp3356
g18
F0.5
sg19
I24337
sg20
g0
(g21
g22
(dp3357
I0
I22877
sI1
I1460
stp3358
Rp3359
(dp3360
g19
I24337
sg27
Nsg28
Nsg29
Nsbsg30
I3
sg31
F24338.5
sbs(g9
S'\xd2\xbb\xcf\xc2'
p3361
tp3362
g0
(g14
g2
Ntp3363
Rp3364
(dp3365
g18
F0.5
sg19
I1422
sg20
g0
(g21
g22
(dp3366
I0
I1378
sI1
I44
stp3367
Rp3368
(dp3369
g19
I1422
sg27
Nsg28
Nsg29
Nsbsg30
I3
sg31
F1423.5
sbs(g8
S'\xc3\xbb\xd3\xd0'
p3370
tp3371
g0
(g14
g2
Ntp3372
Rp3373
(dp3374
g18
F0.5
sg19
I24337
sg20
g0
(g21
g22
(dp3375
I0
I23207
sI1
I1130
stp3376
Rp3377
(dp3378
g19
I24337
sg27
Nsg28
Nsg29
Nsbsg30
I3
sg31
F24338.5
sbs(g9
S'\xcd\xf8\xd5\xbe'
p3379
tp3380
g0
(g14
g2
Ntp3381
Rp3382
(dp3383
g18
F0.5
sg19
I1422
sg20
g0
(g21
g22
(dp3384
I0
I1380
sI1
I42
stp3385
Rp3386
(dp3387
g19
I1422
sg27
Nsg28
Nsg29
Nsbsg30
I3
sg31
F1423.5
sbs(g9
S'/'
p3388
tp3389
g0
(g14
g2
Ntp3390
Rp3391
(dp3392
g18
F0.5
sg19
I1422
sg20
g0
(g21
g22
(dp3393
I0
I1302
sI1
I120
stp3394
Rp3395
(dp3396
g19
I1422
sg27
Nsg28
Nsg29
Nsbsg30
I3
sg31
F1423.5
sbs(g8
S'pid'
p3397
tp3398
g0
(g14
g2
Ntp3399
Rp3400
(dp3401
g18
F0.5
sg19
I24337
sg20
g0
(g21
g22
(dp3402
I0
I24245
sI1
I92
stp3403
Rp3404
(dp3405
g19
I24337
sg27
Nsg28
Nsg29
Nsbsg30
I3
sg31
F24338.5
sbs(g9
S'engineering'
p3406
tp3407
g0
(g14
g2
Ntp3408
Rp3409
(dp3410
g18
F0.5
sg19
I1422
sg20
g0
(g21
g22
(dp3411
I0
I1369
sI1
I53
stp3412
Rp3413
(dp3414
g19
I1422
sg27
Nsg28
Nsg29
Nsbsg30
I3
sg31
F1423.5
sbs(g9
S'\xbf\xb4\xb5\xbd'
p3415
tp3416
g0
(g14
g2
Ntp3417
Rp3418
(dp3419
g18
F0.5
sg19
I1422
sg20
g0
(g21
g22
(dp3420
I0
I1373
sI1
I49
stp3421
Rp3422
(dp3423
g19
I1422
sg27
Nsg28
Nsg29
Nsbsg30
I3
sg31
F1423.5
sbs(g8
S'\xcc\xf9'
p3424
tp3425
g0
(g14
g2
Ntp3426
Rp3427
(dp3428
g18
F0.5
sg19
I24337
sg20
g0
(g21
g22
(dp3429
I0
I24089
sI1
I248
stp3430
Rp3431
(dp3432
g19
I24337
sg27
Nsg28
Nsg29
Nsbsg30
I3
sg31
F24338.5
sbs(g8
S'?'
p3433
tp3434
g0
(g14
g2
Ntp3435
Rp3436
(dp3437
g18
F0.5
sg19
I24337
sg20
g0
(g21
g22
(dp3438
I0
I24189
sI1
I148
stp3439
Rp3440
(dp3441
g19
I24337
sg27
Nsg28
Nsg29
Nsbsg30
I3
sg31
F24338.5
sbs(g8
S'\xb8\xfc'
p3442
tp3443
g0
(g14
g2
Ntp3444
Rp3445
(dp3446
g18
F0.5
sg19
I24337
sg20
g0
(g21
g22
(dp3447
I0
I22718
sI1
I1619
stp3448
Rp3449
(dp3450
g19
I24337
sg27
Nsg28
Nsg29
Nsbsg30
I3
sg31
F24338.5
sbs(g9
S'\xd2\xd4\xba\xf3'
p3451
tp3452
g0
(g14
g2
Ntp3453
Rp3454
(dp3455
g18
F0.5
sg19
I1422
sg20
g0
(g21
g22
(dp3456
I0
I1384
sI1
I38
stp3457
Rp3458
(dp3459
g19
I1422
sg27
Nsg28
Nsg29
Nsbsg30
I3
sg31
F1423.5
sbs(g8
S'\xbb\xb9\xca\xc7'
p3460
tp3461
g0
(g14
g2
Ntp3462
Rp3463
(dp3464
g18
F0.5
sg19
I24337
sg20
g0
(g21
g22
(dp3465
I0
I23167
sI1
I1170
stp3466
Rp3467
(dp3468
g19
I24337
sg27
Nsg28
Nsg29
Nsbsg30
I3
sg31
F24338.5
sbs(g9
S'\xbe\xcd\xca\xc7'
p3469
tp3470
g0
(g14
g2
Ntp3471
Rp3472
(dp3473
g18
F0.5
sg19
I1422
sg20
g0
(g21
g22
(dp3474
I0
I1387
sI1
I35
stp3475
Rp3476
(dp3477
g19
I1422
sg27
Nsg28
Nsg29
Nsbsg30
I3
sg31
F1423.5
sbs(g9
S'\xc7\xeb'
p3478
tp3479
g0
(g14
g2
Ntp3480
Rp3481
(dp3482
g18
F0.5
sg19
I1422
sg20
g0
(g21
g22
(dp3483
I0
I1371
sI1
I51
stp3484
Rp3485
(dp3486
g19
I1422
sg27
Nsg28
Nsg29
Nsbsg30
I3
sg31
F1423.5
sbs(g9
S'\xb5\xc4'
p3487
tp3488
g0
(g14
g2
Ntp3489
Rp3490
(dp3491
g18
F0.5
sg19
I1422
sg20
g0
(g21
g22
(dp3492
I0
I743
sI1
I679
stp3493
Rp3494
(dp3495
g19
I1422
sg27
Nsg28
Nsg29
Nsbsg30
I3
sg31
F1423.5
sbs(g9
S'-'
p3496
tp3497
g0
(g14
g2
Ntp3498
Rp3499
(dp3500
g18
F0.5
sg19
I1422
sg20
g0
(g21
g22
(dp3501
I0
I1323
sI1
I99
stp3502
Rp3503
(dp3504
g19
I1422
sg27
Nsg28
Nsg29
Nsbsg30
I3
sg31
F1423.5
sbs(g8
S'\xb1\xa8'
p3505
tp3506
g0
(g14
g2
Ntp3507
Rp3508
(dp3509
g18
F0.5
sg19
I24337
sg20
g0
(g21
g22
(dp3510
I0
I24098
sI1
I239
stp3511
Rp3512
(dp3513
g19
I24337
sg27
Nsg28
Nsg29
Nsbsg30
I3
sg31
F24338.5
sbs(g9
S'ptid'
p3514
tp3515
g0
(g14
g2
Ntp3516
Rp3517
(dp3518
g18
F0.5
sg19
I1422
sg20
g0
(g21
g22
(dp3519
I0
I1408
sI1
I14
stp3520
Rp3521
(dp3522
g19
I1422
sg27
Nsg28
Nsg29
Nsbsg30
I3
sg31
F1423.5
sbs(g9
S'\xbf\xaa\xca\xbc'
p3523
tp3524
g0
(g14
g2
Ntp3525
Rp3526
(dp3527
g18
F0.5
sg19
I1422
sg20
g0
(g21
g22
(dp3528
I0
I1386
sI1
I36
stp3529
Rp3530
(dp3531
g19
I1422
sg27
Nsg28
Nsg29
Nsbsg30
I3
sg31
F1423.5
sbs(g8
S'php'
p3532
tp3533
g0
(g14
g2
Ntp3534
Rp3535
(dp3536
g18
F0.5
sg19
I24337
sg20
g0
(g21
g22
(dp3537
I0
I24236
sI1
I101
stp3538
Rp3539
(dp3540
g19
I24337
sg27
Nsg28
Nsg29
Nsbsg30
I3
sg31
F24338.5
sbs(g8
S'{'
p3541
tp3542
g0
(g14
g2
Ntp3543
Rp3544
(dp3545
g18
F0.5
sg19
I24337
sg20
g0
(g21
g22
(dp3546
I0
I23562
sI1
I775
stp3547
Rp3548
(dp3549
g19
I24337
sg27
Nsg28
Nsg29
Nsbsg30
I3
sg31
F24338.5
sbs(g8
S'\xb1\xe0\xbc\xad'
p3550
tp3551
g0
(g14
g2
Ntp3552
Rp3553
(dp3554
g18
F0.5
sg19
I24337
sg20
g0
(g21
g22
(dp3555
I0
I23462
sI1
I875
stp3556
Rp3557
(dp3558
g19
I24337
sg27
Nsg28
Nsg29
Nsbsg30
I3
sg31
F24338.5
sbs(g9
S'\xc9\xea\xc7\xeb'
p3559
tp3560
g0
(g14
g2
Ntp3561
Rp3562
(dp3563
g18
F0.5
sg19
I1422
sg20
g0
(g21
g22
(dp3564
I0
I1036
sI1
I386
stp3565
Rp3566
(dp3567
g19
I1422
sg27
Nsg28
Nsg29
Nsbsg30
I3
sg31
F1423.5
sbs(g9
S'offer'
p3568
tp3569
g0
(g14
g2
Ntp3570
Rp3571
(dp3572
g18
F0.5
sg19
I1422
sg20
g0
(g21
g22
(dp3573
I0
I1387
sI1
I35
stp3574
Rp3575
(dp3576
g19
I1422
sg27
Nsg28
Nsg29
Nsbsg30
I3
sg31
F1423.5
sbs(g8
S'\xd1\xd0\xbe\xbf\xc9\xfa'
p3577
tp3578
g0
(g14
g2
Ntp3579
Rp3580
(dp3581
g18
F0.5
sg19
I24337
sg20
g0
(g21
g22
(dp3582
I0
I22794
sI1
I1543
stp3583
Rp3584
(dp3585
g19
I24337
sg27
Nsg28
Nsg29
Nsbsg30
I3
sg31
F24338.5
sbs(g8
S's'
p3586
tp3587
g0
(g14
g2
Ntp3588
Rp3589
(dp3590
g18
F0.5
sg19
I24337
sg20
g0
(g21
g22
(dp3591
I0
I23306
sI1
I1031
stp3592
Rp3593
(dp3594
g19
I24337
sg27
Nsg28
Nsg29
Nsbsg30
I3
sg31
F24338.5
sbs(g8
S'\xbb\xb6\xd3\xad'
p3595
tp3596
g0
(g14
g2
Ntp3597
Rp3598
(dp3599
g18
F0.5
sg19
I24337
sg20
g0
(g21
g22
(dp3600
I0
I23890
sI1
I447
stp3601
Rp3602
(dp3603
g19
I24337
sg27
Nsg28
Nsg29
Nsbsg30
I3
sg31
F24338.5
sbs(g9
S'\xb7\xbd\xcf\xf2'
p3604
tp3605
g0
(g14
g2
Ntp3606
Rp3607
(dp3608
g18
F0.5
sg19
I1422
sg20
g0
(g21
g22
(dp3609
I0
I1299
sI1
I123
stp3610
Rp3611
(dp3612
g19
I1422
sg27
Nsg28
Nsg29
Nsbsg30
I3
sg31
F1423.5
sbs(g9
S'\xcb\xb6\xca\xbf'
p3613
tp3614
g0
(g14
g2
Ntp3615
Rp3616
(dp3617
g18
F0.5
sg19
I1422
sg20
g0
(g21
g22
(dp3618
I0
I1358
sI1
I64
stp3619
Rp3620
(dp3621
g19
I1422
sg27
Nsg28
Nsg29
Nsbsg30
I3
sg31
F1423.5
sbs(g9
S'\xcf\xeb'
p3622
tp3623
g0
(g14
g2
Ntp3624
Rp3625
(dp3626
g18
F0.5
sg19
I1422
sg20
g0
(g21
g22
(dp3627
I0
I1235
sI1
I187
stp3628
Rp3629
(dp3630
g19
I1422
sg27
Nsg28
Nsg29
Nsbsg30
I3
sg31
F1423.5
sbs(g9
S'\xd6\xd0'
p3631
tp3632
g0
(g14
g2
Ntp3633
Rp3634
(dp3635
g18
F0.5
sg19
I1422
sg20
g0
(g21
g22
(dp3636
I0
I1362
sI1
I60
stp3637
Rp3638
(dp3639
g19
I1422
sg27
Nsg28
Nsg29
Nsbsg30
I3
sg31
F1423.5
sbs(g8
S'\xb7\xd6\xcf\xed'
p3640
tp3641
g0
(g14
g2
Ntp3642
Rp3643
(dp3644
g18
F0.5
sg19
I24337
sg20
g0
(g21
g22
(dp3645
I0
I23265
sI1
I1072
stp3646
Rp3647
(dp3648
g19
I24337
sg27
Nsg28
Nsg29
Nsbsg30
I3
sg31
F24338.5
sbs(g8
S'\xba\xdc'
p3649
tp3650
g0
(g14
g2
Ntp3651
Rp3652
(dp3653
g18
F0.5
sg19
I24337
sg20
g0
(g21
g22
(dp3654
I0
I20486
sI1
I3851
stp3655
Rp3656
(dp3657
g19
I24337
sg27
Nsg28
Nsg29
Nsbsg30
I3
sg31
F24338.5
sbs(g8
S'\xbe\xcd'
p3658
tp3659
g0
(g14
g2
Ntp3660
Rp3661
(dp3662
g18
F0.5
sg19
I24337
sg20
g0
(g21
g22
(dp3663
I0
I21888
sI1
I2449
stp3664
Rp3665
(dp3666
g19
I24337
sg27
Nsg28
Nsg29
Nsbsg30
I3
sg31
F24338.5
sbs(g9
S'pid'
p3667
tp3668
g0
(g14
g2
Ntp3669
Rp3670
(dp3671
g18
F0.5
sg19
I1422
sg20
g0
(g21
g22
(dp3672
I0
I1408
sI1
I14
stp3673
Rp3674
(dp3675
g19
I1422
sg27
Nsg28
Nsg29
Nsbsg30
I3
sg31
F1423.5
sbs(g9
S'\xc0\xef'
p3676
tp3677
g0
(g14
g2
Ntp3678
Rp3679
(dp3680
g18
F0.5
sg19
I1422
sg20
g0
(g21
g22
(dp3681
I0
I1384
sI1
I38
stp3682
Rp3683
(dp3684
g19
I1422
sg27
Nsg28
Nsg29
Nsbsg30
I3
sg31
F1423.5
sbs(g9
S'\xb9\xfa\xc4\xda'
p3685
tp3686
g0
(g14
g2
Ntp3687
Rp3688
(dp3689
g18
F0.5
sg19
I1422
sg20
g0
(g21
g22
(dp3690
I0
I1359
sI1
I63
stp3691
Rp3692
(dp3693
g19
I1422
sg27
Nsg28
Nsg29
Nsbsg30
I3
sg31
F1423.5
sbs(g9
S'\xa3\xba'
p3694
tp3695
g0
(g14
g2
Ntp3696
Rp3697
(dp3698
g18
F0.5
sg19
I1422
sg20
g0
(g21
g22
(dp3699
I0
I1357
sI1
I65
stp3700
Rp3701
(dp3702
g19
I1422
sg27
Nsg28
Nsg29
Nsbsg30
I3
sg31
F1423.5
sbs(g8
S'14fall'
p3703
tp3704
g0
(g14
g2
Ntp3705
Rp3706
(dp3707
g18
F0.5
sg19
I24337
sg20
g0
(g21
g22
(dp3708
I0
I23499
sI1
I838
stp3709
Rp3710
(dp3711
g19
I24337
sg27
Nsg28
Nsg29
Nsbsg30
I3
sg31
F24338.5
sbs(g9
S'\xc7\xe9\xbf\xf6'
p3712
tp3713
g0
(g14
g2
Ntp3714
Rp3715
(dp3716
g18
F0.5
sg19
I1422
sg20
g0
(g21
g22
(dp3717
I0
I1362
sI1
I60
stp3718
Rp3719
(dp3720
g19
I1422
sg27
Nsg28
Nsg29
Nsbsg30
I3
sg31
F1423.5
sbs(g9
S'\xc2\xdb\xcc\xb3'
p3721
tp3722
g0
(g14
g2
Ntp3723
Rp3724
(dp3725
g18
F0.5
sg19
I1422
sg20
g0
(g21
g22
(dp3726
I0
I1213
sI1
I209
stp3727
Rp3728
(dp3729
g19
I1422
sg27
Nsg28
Nsg29
Nsbsg30
I3
sg31
F1423.5
sbs(g9
S'com'
p3730
tp3731
g0
(g14
g2
Ntp3732
Rp3733
(dp3734
g18
F0.5
sg19
I1422
sg20
g0
(g21
g22
(dp3735
I0
I1397
sI1
I25
stp3736
Rp3737
(dp3738
g19
I1422
sg27
Nsg28
Nsg29
Nsbsg30
I3
sg31
F1423.5
sbs(g8
S'www'
p3739
tp3740
g0
(g14
g2
Ntp3741
Rp3742
(dp3743
g18
F0.5
sg19
I24337
sg20
g0
(g21
g22
(dp3744
I0
I24222
sI1
I115
stp3745
Rp3746
(dp3747
g19
I24337
sg27
Nsg28
Nsg29
Nsbsg30
I3
sg31
F24338.5
sbs(g9
S'\xa1\xa2'
p3748
tp3749
g0
(g14
g2
Ntp3750
Rp3751
(dp3752
g18
F0.5
sg19
I1422
sg20
g0
(g21
g22
(dp3753
I0
I1387
sI1
I35
stp3754
Rp3755
(dp3756
g19
I1422
sg27
Nsg28
Nsg29
Nsbsg30
I3
sg31
F1423.5
sbs(g9
S'\xb8\xfc'
p3757
tp3758
g0
(g14
g2
Ntp3759
Rp3760
(dp3761
g18
F0.5
sg19
I1422
sg20
g0
(g21
g22
(dp3762
I0
I1352
sI1
I70
stp3763
Rp3764
(dp3765
g19
I1422
sg27
Nsg28
Nsg29
Nsbsg30
I3
sg31
F1423.5
sbs(g9
S'\xb6\xe0'
p3766
tp3767
g0
(g14
g2
Ntp3768
Rp3769
(dp3770
g18
F0.5
sg19
I1422
sg20
g0
(g21
g22
(dp3771
I0
I1293
sI1
I129
stp3772
Rp3773
(dp3774
g19
I1422
sg27
Nsg28
Nsg29
Nsbsg30
I3
sg31
F1423.5
sbs(g9
S'\xcb\xf9\xd2\xd4'
p3775
tp3776
g0
(g14
g2
Ntp3777
Rp3778
(dp3779
g18
F0.5
sg19
I1422
sg20
g0
(g21
g22
(dp3780
I0
I1352
sI1
I70
stp3781
Rp3782
(dp3783
g19
I1422
sg27
Nsg28
Nsg29
Nsbsg30
I3
sg31
F1423.5
sbs(g9
S'\xba\xcd'
p3784
tp3785
g0
(g14
g2
Ntp3786
Rp3787
(dp3788
g18
F0.5
sg19
I1422
sg20
g0
(g21
g22
(dp3789
I0
I1255
sI1
I167
stp3790
Rp3791
(dp3792
g19
I1422
sg27
Nsg28
Nsg29
Nsbsg30
I3
sg31
F1423.5
sbs(g9
S'\xc1\xf4\xd1\xa7'
p3793
tp3794
g0
(g14
g2
Ntp3795
Rp3796
(dp3797
g18
F0.5
sg19
I1422
sg20
g0
(g21
g22
(dp3798
I0
I1334
sI1
I88
stp3799
Rp3800
(dp3801
g19
I1422
sg27
Nsg28
Nsg29
Nsbsg30
I3
sg31
F1423.5
sbs(g9
S'\xcd\xa8\xb9\xfd'
p3802
tp3803
g0
(g14
g2
Ntp3804
Rp3805
(dp3806
g18
F0.5
sg19
I1422
sg20
g0
(g21
g22
(dp3807
I0
I1349
sI1
I73
stp3808
Rp3809
(dp3810
g19
I1422
sg27
Nsg28
Nsg29
Nsbsg30
I3
sg31
F1423.5
sbs(g9
S'\xb1\xa8\xb5\xc0'
p3811
tp3812
g0
(g14
g2
Ntp3813
Rp3814
(dp3815
g18
F0.5
sg19
I1422
sg20
g0
(g21
g22
(dp3816
I0
I1230
sI1
I192
stp3817
Rp3818
(dp3819
g19
I1422
sg27
Nsg28
Nsg29
Nsbsg30
I3
sg31
F1423.5
sbs(g9
S'\xca\xb1\xba\xf2'
p3820
tp3821
g0
(g14
g2
Ntp3822
Rp3823
(dp3824
g18
F0.5
sg19
I1422
sg20
g0
(g21
g22
(dp3825
I0
I1390
sI1
I32
stp3826
Rp3827
(dp3828
g19
I1422
sg27
Nsg28
Nsg29
Nsbsg30
I3
sg31
F1423.5
sbs(g9
S'\xa3\xa1'
p3829
tp3830
g0
(g14
g2
Ntp3831
Rp3832
(dp3833
g18
F0.5
sg19
I1422
sg20
g0
(g21
g22
(dp3834
I0
I1165
sI1
I257
stp3835
Rp3836
(dp3837
g19
I1422
sg27
Nsg28
Nsg29
Nsbsg30
I3
sg31
F1423.5
sbs(g9
S'\xd0\xc5\xcf\xa2'
p3838
tp3839
g0
(g14
g2
Ntp3840
Rp3841
(dp3842
g18
F0.5
sg19
I1422
sg20
g0
(g21
g22
(dp3843
I0
I1288
sI1
I134
stp3844
Rp3845
(dp3846
g19
I1422
sg27
Nsg28
Nsg29
Nsbsg30
I3
sg31
F1423.5
sbs(g8
S'.'
p3847
tp3848
g0
(g14
g2
Ntp3849
Rp3850
(dp3851
g18
F0.5
sg19
I24337
sg20
g0
(g21
g22
(dp3852
I0
I21435
sI1
I2902
stp3853
Rp3854
(dp3855
g19
I24337
sg27
Nsg28
Nsg29
Nsbsg30
I3
sg31
F24338.5
sbs(g9
S'{'
p3856
tp3857
g0
(g14
g2
Ntp3858
Rp3859
(dp3860
g18
F0.5
sg19
I1422
sg20
g0
(g21
g22
(dp3861
I0
I1352
sI1
I70
stp3862
Rp3863
(dp3864
g19
I1422
sg27
Nsg28
Nsg29
Nsbsg30
I3
sg31
F1423.5
sbs(g9
S'\xb1\xc8\xbd\xcf'
p3865
tp3866
g0
(g14
g2
Ntp3867
Rp3868
(dp3869
g18
F0.5
sg19
I1422
sg20
g0
(g21
g22
(dp3870
I0
I1384
sI1
I38
stp3871
Rp3872
(dp3873
g19
I1422
sg27
Nsg28
Nsg29
Nsbsg30
I3
sg31
F1423.5
sbs(g9
S'\xd2\xb2'
p3874
tp3875
g0
(g14
g2
Ntp3876
Rp3877
(dp3878
g18
F0.5
sg19
I1422
sg20
g0
(g21
g22
(dp3879
I0
I1317
sI1
I105
stp3880
Rp3881
(dp3882
g19
I1422
sg27
Nsg28
Nsg29
Nsbsg30
I3
sg31
F1423.5
sbs(g8
S'\xc7\xeb'
p3883
tp3884
g0
(g14
g2
Ntp3885
Rp3886
(dp3887
g18
F0.5
sg19
I24337
sg20
g0
(g21
g22
(dp3888
I0
I23666
sI1
I671
stp3889
Rp3890
(dp3891
g19
I24337
sg27
Nsg28
Nsg29
Nsbsg30
I3
sg31
F24338.5
sbs(g8
S'\xb5\xab\xca\xc7'
p3892
tp3893
g0
(g14
g2
Ntp3894
Rp3895
(dp3896
g18
F0.5
sg19
I24337
sg20
g0
(g21
g22
(dp3897
I0
I23112
sI1
I1225
stp3898
Rp3899
(dp3900
g19
I24337
sg27
Nsg28
Nsg29
Nsbsg30
I3
sg31
F24338.5
sbs(g8
S'\xca\xc7'
p3901
tp3902
g0
(g14
g2
Ntp3903
Rp3904
(dp3905
g18
F0.5
sg19
I24337
sg20
g0
(g21
g22
(dp3906
I0
I8534
sI1
I15803
stp3907
Rp3908
(dp3909
g19
I24337
sg27
Nsg28
Nsg29
Nsbsg30
I3
sg31
F24338.5
sbs(g8
S'\xce\xd2'
p3910
tp3911
g0
(g14
g2
Ntp3912
Rp3913
(dp3914
g18
F0.5
sg19
I24337
sg20
g0
(g21
g22
(dp3915
I0
I2890
sI1
I21447
stp3916
Rp3917
(dp3918
g19
I24337
sg27
Nsg28
Nsg29
Nsbsg30
I3
sg31
F24338.5
sbs(g8
S'1point3acres'
p3919
tp3920
g0
(g14
g2
Ntp3921
Rp3922
(dp3923
g18
F0.5
sg19
I24337
sg20
g0
(g21
g22
(dp3924
I0
I24133
sI1
I204
stp3925
Rp3926
(dp3927
g19
I24337
sg27
Nsg28
Nsg29
Nsbsg30
I3
sg31
F24338.5
sbs(g9
S'\xb2\xbb\xb4\xed'
p3928
tp3929
g0
(g14
g2
Ntp3930
Rp3931
(dp3932
g18
F0.5
sg19
I1422
sg20
g0
(g21
g22
(dp3933
I0
I1388
sI1
I34
stp3934
Rp3935
(dp3936
g19
I1422
sg27
Nsg28
Nsg29
Nsbsg30
I3
sg31
F1423.5
sbs(g9
S'goto'
p3937
tp3938
g0
(g14
g2
Ntp3939
Rp3940
(dp3941
g18
F0.5
sg19
I1422
sg20
g0
(g21
g22
(dp3942
I0
I1408
sI1
I14
stp3943
Rp3944
(dp3945
g19
I1422
sg27
Nsg28
Nsg29
Nsbsg30
I3
sg31
F1423.5
sbs(g9
S'\xb7\xa2\xcf\xd6'
p3946
tp3947
g0
(g14
g2
Ntp3948
Rp3949
(dp3950
g18
F0.5
sg19
I1422
sg20
g0
(g21
g22
(dp3951
I0
I1376
sI1
I46
stp3952
Rp3953
(dp3954
g19
I1422
sg27
Nsg28
Nsg29
Nsbsg30
I3
sg31
F1423.5
sbs(g9
S'\xc1\xcb'
p3955
tp3956
g0
(g14
g2
Ntp3957
Rp3958
(dp3959
g18
F0.5
sg19
I1422
sg20
g0
(g21
g22
(dp3960
I0
I1054
sI1
I368
stp3961
Rp3962
(dp3963
g19
I1422
sg27
Nsg28
Nsg29
Nsbsg30
I3
sg31
F1423.5
sbs(g9
S'4'
p3964
tp3965
g0
(g14
g2
Ntp3966
Rp3967
(dp3968
g18
F0.5
sg19
I1422
sg20
g0
(g21
g22
(dp3969
I0
I1351
sI1
I71
stp3970
Rp3971
(dp3972
g19
I1422
sg27
Nsg28
Nsg29
Nsbsg30
I3
sg31
F1423.5
sbs(g9
S'\xa3\xa8'
p3973
tp3974
g0
(g14
g2
Ntp3975
Rp3976
(dp3977
g18
F0.5
sg19
I1422
sg20
g0
(g21
g22
(dp3978
I0
I1356
sI1
I66
stp3979
Rp3980
(dp3981
g19
I1422
sg27
Nsg28
Nsg29
Nsbsg30
I3
sg31
F1423.5
sbs(g9
S'\xb4\xd3'
p3982
tp3983
g0
(g14
g2
Ntp3984
Rp3985
(dp3986
g18
F0.5
sg19
I1422
sg20
g0
(g21
g22
(dp3987
I0
I1276
sI1
I146
stp3988
Rp3989
(dp3990
g19
I1422
sg27
Nsg28
Nsg29
Nsbsg30
I3
sg31
F1423.5
sbs(g8
S'\xc7\xe9\xbf\xf6'
p3991
tp3992
g0
(g14
g2
Ntp3993
Rp3994
(dp3995
g18
F0.5
sg19
I24337
sg20
g0
(g21
g22
(dp3996
I0
I22559
sI1
I1778
stp3997
Rp3998
(dp3999
g19
I24337
sg27
Nsg28
Nsg29
Nsbsg30
I3
sg31
F24338.5
sbs(g8
S'\xc0\xef'
p4000
tp4001
g0
(g14
g2
Ntp4002
Rp4003
(dp4004
g18
F0.5
sg19
I24337
sg20
g0
(g21
g22
(dp4005
I0
I23458
sI1
I879
stp4006
Rp4007
(dp4008
g19
I24337
sg27
Nsg28
Nsg29
Nsbsg30
I3
sg31
F24338.5
sbs(g9
S'\xb7\xd6'
p4009
tp4010
g0
(g14
g2
Ntp4011
Rp4012
(dp4013
g18
F0.5
sg19
I1422
sg20
g0
(g21
g22
(dp4014
I0
I1374
sI1
I48
stp4015
Rp4016
(dp4017
g19
I1422
sg27
Nsg28
Nsg29
Nsbsg30
I3
sg31
F1423.5
sbs(g8
S'\xa3\xba'
p4018
tp4019
g0
(g14
g2
Ntp4020
Rp4021
(dp4022
g18
F0.5
sg19
I24337
sg20
g0
(g21
g22
(dp4023
I0
I23250
sI1
I1087
stp4024
Rp4025
(dp4026
g19
I24337
sg27
Nsg28
Nsg29
Nsbsg30
I3
sg31
F24338.5
sbs(g8
S'\xd3\xd0'
p4027
tp4028
g0
(g14
g2
Ntp4029
Rp4030
(dp4031
g18
F0.5
sg19
I24337
sg20
g0
(g21
g22
(dp4032
I0
I20678
sI1
I3659
stp4033
Rp4034
(dp4035
g19
I24337
sg27
Nsg28
Nsg29
Nsbsg30
I3
sg31
F24338.5
sbs(g8
S'bbs'
p4036
tp4037
g0
(g14
g2
Ntp4038
Rp4039
(dp4040
g18
F0.5
sg19
I24337
sg20
g0
(g21
g22
(dp4041
I0
I19865
sI1
I4472
stp4042
Rp4043
(dp4044
g19
I24337
sg27
Nsg28
Nsg29
Nsbsg30
I3
sg31
F24338.5
sbs(g8
S'\xb8\xd0\xbe\xf5'
p4045
tp4046
g0
(g14
g2
Ntp4047
Rp4048
(dp4049
g18
F0.5
sg19
I24337
sg20
g0
(g21
g22
(dp4050
I0
I22766
sI1
I1571
stp4051
Rp4052
(dp4053
g19
I24337
sg27
Nsg28
Nsg29
Nsbsg30
I3
sg31
F24338.5
sbs(g8
S'\xcc\xab'
p4054
tp4055
g0
(g14
g2
Ntp4056
Rp4057
(dp4058
g18
F0.5
sg19
I24337
sg20
g0
(g21
g22
(dp4059
I0
I23394
sI1
I943
stp4060
Rp4061
(dp4062
g19
I24337
sg27
Nsg28
Nsg29
Nsbsg30
I3
sg31
F24338.5
sbs(g9
S'\xb2\xc5'
p4063
tp4064
g0
(g14
g2
Ntp4065
Rp4066
(dp4067
g18
F0.5
sg19
I1422
sg20
g0
(g21
g22
(dp4068
I0
I1388
sI1
I34
stp4069
Rp4070
(dp4071
g19
I1422
sg27
Nsg28
Nsg29
Nsbsg30
I3
sg31
F1423.5
sbs(g9
S'\xb5\xd8'
p4072
tp4073
g0
(g14
g2
Ntp4074
Rp4075
(dp4076
g18
F0.5
sg19
I1422
sg20
g0
(g21
g22
(dp4077
I0
I1302
sI1
I120
stp4078
Rp4079
(dp4080
g19
I1422
sg27
Nsg28
Nsg29
Nsbsg30
I3
sg31
F1423.5
sbs(g8
S'\xd6\xd0'
p4081
tp4082
g0
(g14
g2
Ntp4083
Rp4084
(dp4085
g18
F0.5
sg19
I24337
sg20
g0
(g21
g22
(dp4086
I0
I22203
sI1
I2134
stp4087
Rp4088
(dp4089
g19
I24337
sg27
Nsg28
Nsg29
Nsbsg30
I3
sg31
F24338.5
sbs(g8
S'\xc9\xcf'
p4090
tp4091
g0
(g14
g2
Ntp4092
Rp4093
(dp4094
g18
F0.5
sg19
I24337
sg20
g0
(g21
g22
(dp4095
I0
I21572
sI1
I2765
stp4096
Rp4097
(dp4098
g19
I24337
sg27
Nsg28
Nsg29
Nsbsg30
I3
sg31
F24338.5
sbs(g9
S'\xbb\xfd\xb7\xd6'
p4099
tp4100
g0
(g14
g2
Ntp4101
Rp4102
(dp4103
g18
F0.5
sg19
I1422
sg20
g0
(g21
g22
(dp4104
I0
I1347
sI1
I75
stp4105
Rp4106
(dp4107
g19
I1422
sg27
Nsg28
Nsg29
Nsbsg30
I3
sg31
F1423.5
sbs(g9
S'\xba\xdc\xb6\xe0'
p4108
tp4109
g0
(g14
g2
Ntp4110
Rp4111
(dp4112
g18
F0.5
sg19
I1422
sg20
g0
(g21
g22
(dp4113
I0
I1350
sI1
I72
stp4114
Rp4115
(dp4116
g19
I1422
sg27
Nsg28
Nsg29
Nsbsg30
I3
sg31
F1423.5
sbs(g8
S'\xcd\xa8\xb9\xfd'
p4117
tp4118
g0
(g14
g2
Ntp4119
Rp4120
(dp4121
g18
F0.5
sg19
I24337
sg20
g0
(g21
g22
(dp4122
I0
I21590
sI1
I2747
stp4123
Rp4124
(dp4125
g19
I24337
sg27
Nsg28
Nsg29
Nsbsg30
I3
sg31
F24338.5
sbs(g9
S'\xcc\xfb\xd7\xd3'
p4126
tp4127
g0
(g14
g2
Ntp4128
Rp4129
(dp4130
g18
F0.5
sg19
I1422
sg20
g0
(g21
g22
(dp4131
I0
I1345
sI1
I77
stp4132
Rp4133
(dp4134
g19
I1422
sg27
Nsg28
Nsg29
Nsbsg30
I3
sg31
F1423.5
sbs(g9
g743
tp4135
g0
(g14
g2
Ntp4136
Rp4137
(dp4138
g18
F0.5
sg19
I1422
sg20
g0
(g21
g22
(dp4139
S'660'
p4140
I1
sS'164'
p4141
I2
sS'769'
p4142
I1
sS'165'
p4143
I3
sS'166'
p4144
I3
sS'167'
p4145
I2
sS'697'
p4146
I1
sS'160'
p4147
I4
sS'1944'
p4148
I1
sS'161'
p4149
I3
sS'344'
p4150
I3
sS'345'
p4151
I2
sS'540'
p4152
I1
sS'347'
p4153
I1
sS'547'
p4154
I2
sS'343'
p4155
I1
sg1048
I7
sS'549'
p4156
I1
sS'348'
p4157
I1
sS'992'
p4158
I1
sS'120'
p4159
I2
sS'121'
p4160
I8
sS'122'
p4161
I5
sS'123'
p4162
I8
sS'124'
p4163
I4
sS'125'
p4164
I2
sS'126'
p4165
I5
sS'127'
p4166
I3
sS'128'
p4167
I2
sS'129'
p4168
I5
sS'362'
p4169
I2
sS'363'
p4170
I4
sS'416'
p4171
I1
sS'411'
p4172
I1
sS'298'
p4173
I1
sS'299'
p4174
I2
sS'297'
p4175
I4
sS'295'
p4176
I2
sS'292'
p4177
I2
sS'293'
p4178
I3
sS'290'
p4179
I3
sS'291'
p4180
I2
sS'591'
p4181
I1
sS'319'
p4182
I2
sS'199'
p4183
I2
sS'198'
p4184
I8
sS'195'
p4185
I1
sS'194'
p4186
I6
sS'197'
p4187
I4
sS'196'
p4188
I2
sS'191'
p4189
I1
sS'190'
p4190
I3
sS'193'
p4191
I5
sS'192'
p4192
I3
sS'270'
p4193
I3
sS'273'
p4194
I2
sS'274'
p4195
I1
sS'275'
p4196
I1
sS'276'
p4197
I1
sS'279'
p4198
I3
sS'313'
p4199
I2
sS'606'
p4200
I1
sS'300'
p4201
I1
sS'521'
p4202
I1
sS'368'
p4203
I1
sS'312'
p4204
I3
sS'365'
p4205
I1
sS'528'
p4206
I1
sS'529'
p4207
I1
sS'360'
p4208
I1
sS'303'
p4209
I1
sS'443'
p4210
I1
sS'440'
p4211
I1
sS'447'
p4212
I1
sS'380'
p4213
I1
sS'108'
p4214
I3
sS'109'
p4215
I2
sS'385'
p4216
I2
sS'386'
p4217
I2
sS'387'
p4218
I1
sS'102'
p4219
I6
sS'103'
p4220
I5
sS'100'
p4221
I3
sS'101'
p4222
I5
sS'106'
p4223
I5
sS'107'
p4224
I6
sS'104'
p4225
I5
sS'105'
p4226
I2
sS'39'
p4227
I19
sS'38'
p4228
I6
sS'905'
p4229
I1
sS'33'
p4230
I20
sS'32'
p4231
I3
sS'31'
p4232
I11
sS'30'
p4233
I19
sS'37'
p4234
I5
sS'36'
p4235
I16
sS'35'
p4236
I5
sS'34'
p4237
I6
sS'647'
p4238
I1
sS'114'
p4239
I6
sS'437'
p4240
I2
sS'434'
p4241
I1
sS'430'
p4242
I1
sS'431'
p4243
I2
sS'579'
p4244
I1
sS'335'
p4245
I2
sS'331'
p4246
I2
sS'153'
p4247
I4
sS'333'
p4248
I1
sS'60'
p4249
I7
sS'388'
p4250
I1
sS'62'
p4251
I6
sS'63'
p4252
I10
sS'65'
p4253
I7
sS'66'
p4254
I6
sS'67'
p4255
I4
sS'68'
p4256
I2
sS'253'
p4257
I3
sS'250'
p4258
I2
sS'251'
p4259
I1
sS'256'
p4260
I1
sS'254'
p4261
I1
sS'886'
p4262
I1
sS'854'
p4263
I1
sS'289'
p4264
I1
sS'543'
p4265
I1
sS'505'
p4266
I1
sS'503'
p4267
I1
sS'500'
p4268
I2
sS'630'
p4269
I1
sS'633'
p4270
I1
sS'469'
p4271
I1
sS'460'
p4272
I2
sS'99'
p4273
I4
sS'168'
p4274
I1
sS'169'
p4275
I3
sS'91'
p4276
I7
sS'90'
p4277
I9
sS'93'
p4278
I8
sS'92'
p4279
I5
sS'95'
p4280
I2
sS'94'
p4281
I5
sS'97'
p4282
I4
sS'96'
p4283
I4
sS'284'
p4284
I1
sS'286'
p4285
I2
sS'1840'
p4286
I1
sS'600'
p4287
I1
sS'41'
p4288
I2
sS'113'
p4289
I3
sS'238'
p4290
I2
sS'239'
p4291
I1
sS'234'
p4292
I2
sS'235'
p4293
I1
sS'236'
p4294
I1
sS'237'
p4295
I1
sS'230'
p4296
I2
sS'231'
p4297
I2
sS'232'
p4298
I2
sS'233'
p4299
I1
sg1889
I5
sS'146'
p4300
I1
sS'147'
p4301
I3
sS'1175'
p4302
I1
sS'145'
p4303
I3
sS'143'
p4304
I4
sS'140'
p4305
I2
sS'141'
p4306
I1
sS'610'
p4307
I1
sS'148'
p4308
I2
sS'149'
p4309
I2
sS'357'
p4310
I3
sS'356'
p4311
I1
sS'355'
p4312
I3
sS'351'
p4313
I1
sS'47'
p4314
I7
sS'684'
p4315
I1
sS'680'
p4316
I1
sS'805'
p4317
I1
sS'358'
p4318
I1
sS'216'
p4319
I2
sS'217'
p4320
I2
sS'214'
p4321
I4
sS'215'
p4322
I1
sS'212'
p4323
I4
sS'213'
p4324
I1
sS'210'
p4325
I2
sS'211'
p4326
I1
sS'766'
p4327
I1
sS'218'
p4328
I2
sS'219'
p4329
I3
sS'133'
p4330
I4
sS'132'
p4331
I1
sS'131'
p4332
I5
sS'130'
p4333
I4
sS'137'
p4334
I1
sS'499'
p4335
I1
sS'135'
p4336
I10
sS'134'
p4337
I6
sS'494'
p4338
I2
sS'139'
p4339
I5
sS'138'
p4340
I6
sS'493'
p4341
I1
sS'24'
p4342
I26
sS'25'
p4343
I4
sS'26'
p4344
I8
sS'27'
p4345
I19
sS'20'
p4346
I3
sS'21'
p4347
I22
sS'22'
p4348
I5
sS'23'
p4349
I7
sS'28'
p4350
I6
sS'29'
p4351
I6
sS'407'
p4352
I2
sS'402'
p4353
I1
sS'281'
p4354
I3
sS'280'
p4355
I1
sS'283'
p4356
I1
sS'282'
p4357
I4
sS'285'
p4358
I2
sS'629'
p4359
I1
sS'287'
p4360
I2
sS'408'
p4361
I1
sS'679'
p4362
I1
sS'136'
p4363
I2
sS'263'
p4364
I1
sS'261'
p4365
I1
sS'260'
p4366
I3
sS'267'
p4367
I1
sS'776'
p4368
I1
sS'265'
p4369
I1
sS'264'
p4370
I2
sS'268'
p4371
I3
sS'59'
p4372
I6
sS'58'
p4373
I6
sS'61'
p4374
I3
sS'55'
p4375
I3
sS'54'
p4376
I11
sS'57'
p4377
I10
sS'56'
p4378
I3
sS'51'
p4379
I15
sS'258'
p4380
I4
sS'53'
p4381
I2
sS'52'
p4382
I1
sS'378'
p4383
I1
sS'535'
p4384
I1
sS'259'
p4385
I2
sS'532'
p4386
I2
sS'372'
p4387
I1
sS'200'
p4388
I1
sS'144'
p4389
I2
sS'50'
p4390
I5
sS'115'
p4391
I3
sS'392'
p4392
I1
sS'88'
p4393
I2
sS'89'
p4394
I4
sS'111'
p4395
I6
sS'396'
p4396
I1
sS'395'
p4397
I1
sS'69'
p4398
I12
sS'82'
p4399
I6
sS'83'
p4400
I5
sS'80'
p4401
I2
sS'81'
p4402
I9
sS'86'
p4403
I5
sS'87'
p4404
I7
sS'84'
p4405
I5
sS'85'
p4406
I6
sS'421'
p4407
I1
sS'255'
p4408
I3
sS'427'
p4409
I3
sS'426'
p4410
I1
sS'308'
p4411
I2
sS'309'
p4412
I1
sS'1138'
p4413
I1
sS'382'
p4414
I2
sS'1130'
p4415
I1
sS'304'
p4416
I2
sS'245'
p4417
I3
sS'244'
p4418
I5
sS'247'
p4419
I3
sS'246'
p4420
I1
sS'241'
p4421
I3
sS'240'
p4422
I1
sS'243'
p4423
I1
sS'242'
p4424
I1
sS'249'
p4425
I3
sS'248'
p4426
I5
sS'418'
p4427
I1
sS'224'
p4428
I4
sS'419'
p4429
I2
sS'519'
p4430
I1
sS'518'
p4431
I1
sS'162'
p4432
I2
sS'512'
p4433
I1
sS'514'
p4434
I1
sS'625'
p4435
I1
sS'451'
p4436
I1
sS'452'
p4437
I1
sS'456'
p4438
I1
sS'179'
p4439
I3
sS'178'
p4440
I1
sS'177'
p4441
I4
sS'176'
p4442
I1
sS'175'
p4443
I1
sS'173'
p4444
I4
sS'172'
p4445
I3
sS'171'
p4446
I3
sS'170'
p4447
I2
sS'182'
p4448
I5
sS'183'
p4449
I2
sS'180'
p4450
I1
sS'181'
p4451
I4
sS'186'
p4452
I4
sS'187'
p4453
I4
sS'184'
p4454
I4
sS'651'
p4455
I1
sS'188'
p4456
I1
sS'189'
p4457
I1
sS'311'
p4458
I1
sS'310'
p4459
I2
sS'185'
p4460
I1
sS'316'
p4461
I1
sS'163'
p4462
I2
sS'229'
p4463
I4
sS'228'
p4464
I3
sS'227'
p4465
I4
sS'226'
p4466
I2
sS'225'
p4467
I8
sS'314'
p4468
I3
sS'11'
p4469
I8
sS'10'
p4470
I5
sS'13'
p4471
I10
sS'12'
p4472
I46
sS'15'
p4473
I43
sS'14'
p4474
I10
sS'17'
p4475
I8
sS'16'
p4476
I14
sS'19'
p4477
I9
sS'18'
p4478
I15
sS'117'
p4479
I7
sS'116'
p4480
I4
sS'2021'
p4481
I1
sS'110'
p4482
I1
sS'151'
p4483
I1
sS'150'
p4484
I4
sS'607'
p4485
I1
sS'152'
p4486
I2
sS'155'
p4487
I2
sS'154'
p4488
I1
sS'157'
p4489
I2
sS'156'
p4490
I5
sS'159'
p4491
I5
sS'158'
p4492
I2
sS'112'
p4493
I10
sS'398'
p4494
I1
sS'48'
p4495
I9
sS'49'
p4496
I4
sS'46'
p4497
I8
sS'119'
p4498
I5
sS'44'
p4499
I4
sS'45'
p4500
I12
sS'42'
p4501
I14
sS'43'
p4502
I3
sS'40'
p4503
I5
sS'118'
p4504
I2
sS'323'
p4505
I1
sS'320'
p4506
I2
sS'321'
p4507
I2
sS'324'
p4508
I1
sS'329'
p4509
I2
sS'1294'
p4510
I1
sS'201'
p4511
I4
sS'774'
p4512
I1
sS'203'
p4513
I4
sS'202'
p4514
I4
sS'205'
p4515
I2
sS'204'
p4516
I2
sS'206'
p4517
I4
sS'209'
p4518
I1
sS'208'
p4519
I2
sS'77'
p4520
I5
sS'76'
p4521
I4
sS'75'
p4522
I9
sS'74'
p4523
I5
sS'73'
p4524
I3
sS'72'
p4525
I13
sS'71'
p4526
I4
sS'70'
p4527
I2
sS'78'
p4528
I7
sS'266'
p4529
I3
sS'470'
p4530
I1
sS'359'
p4531
I1
sS'474'
p4532
I1
stp4533
Rp4534
(dp4535
g19
I1422
sg27
Nsg28
Nsg29
Nsbsg30
I1091
sg31
F1967.5
sbs(g9
S'fall'
p4536
tp4537
g0
(g14
g2
Ntp4538
Rp4539
(dp4540
g18
F0.5
sg19
I1422
sg20
g0
(g21
g22
(dp4541
I0
I1359
sI1
I63
stp4542
Rp4543
(dp4544
g19
I1422
sg27
Nsg28
Nsg29
Nsbsg30
I3
sg31
F1423.5
sbs(g9
S'\xc8\xfd\xb7\xd6'
p4545
tp4546
g0
(g14
g2
Ntp4547
Rp4548
(dp4549
g18
F0.5
sg19
I1422
sg20
g0
(g21
g22
(dp4550
I0
I1279
sI1
I143
stp4551
Rp4552
(dp4553
g19
I1422
sg27
Nsg28
Nsg29
Nsbsg30
I3
sg31
F1423.5
sbs(g8
S'\xa3\xa1'
p4554
tp4555
g0
(g14
g2
Ntp4556
Rp4557
(dp4558
g18
F0.5
sg19
I24337
sg20
g0
(g21
g22
(dp4559
I0
I20190
sI1
I4147
stp4560
Rp4561
(dp4562
g19
I24337
sg27
Nsg28
Nsg29
Nsbsg30
I3
sg31
F24338.5
sbs(g8
S'\xd6\xaa\xb5\xc0'
p4563
tp4564
g0
(g14
g2
Ntp4565
Rp4566
(dp4567
g18
F0.5
sg19
I24337
sg20
g0
(g21
g22
(dp4568
I0
I15926
sI1
I8411
stp4569
Rp4570
(dp4571
g19
I24337
sg27
Nsg28
Nsg29
Nsbsg30
I3
sg31
F24338.5
sbs(g8
S'\xc0\xb4'
p4572
tp4573
g0
(g14
g2
Ntp4574
Rp4575
(dp4576
g18
F0.5
sg19
I24337
sg20
g0
(g21
g22
(dp4577
I0
I21115
sI1
I3222
stp4578
Rp4579
(dp4580
g19
I24337
sg27
Nsg28
Nsg29
Nsbsg30
I3
sg31
F24338.5
sbs(g8
S'\xb6\xe0'
p4581
tp4582
g0
(g14
g2
Ntp4583
Rp4584
(dp4585
g18
F0.5
sg19
I24337
sg20
g0
(g21
g22
(dp4586
I0
I20914
sI1
I3423
stp4587
Rp4588
(dp4589
g19
I24337
sg27
Nsg28
Nsg29
Nsbsg30
I3
sg31
F24338.5
sbs(g8
S'\xc3\xbb'
p4590
tp4591
g0
(g14
g2
Ntp4592
Rp4593
(dp4594
g18
F0.5
sg19
I24337
sg20
g0
(g21
g22
(dp4595
I0
I23544
sI1
I793
stp4596
Rp4597
(dp4598
g19
I24337
sg27
Nsg28
Nsg29
Nsbsg30
I3
sg31
F24338.5
sbs(g9
S'_'
p4599
tp4600
g0
(g14
g2
Ntp4601
Rp4602
(dp4603
g18
F0.5
sg19
I1422
sg20
g0
(g21
g22
(dp4604
I0
I1341
sI1
I81
stp4605
Rp4606
(dp4607
g19
I1422
sg27
Nsg28
Nsg29
Nsbsg30
I3
sg31
F1423.5
sbs(g8
S'\xcd\xf8\xd5\xbe'
p4608
tp4609
g0
(g14
g2
Ntp4610
Rp4611
(dp4612
g18
F0.5
sg19
I24337
sg20
g0
(g21
g22
(dp4613
I0
I23064
sI1
I1273
stp4614
Rp4615
(dp4616
g19
I24337
sg27
Nsg28
Nsg29
Nsbsg30
I3
sg31
F24338.5
sbs(g9
S'\xd5\xe2\xb8\xf6'
p4617
tp4618
g0
(g14
g2
Ntp4619
Rp4620
(dp4621
g18
F0.5
sg19
I1422
sg20
g0
(g21
g22
(dp4622
I0
I1115
sI1
I307
stp4623
Rp4624
(dp4625
g19
I1422
sg27
Nsg28
Nsg29
Nsbsg30
I3
sg31
F1423.5
sbs(g8
S'\xc5\xf3\xd3\xd1'
p4626
tp4627
g0
(g14
g2
Ntp4628
Rp4629
(dp4630
g18
F0.5
sg19
I24337
sg20
g0
(g21
g22
(dp4631
I0
I21193
sI1
I3144
stp4632
Rp4633
(dp4634
g19
I24337
sg27
Nsg28
Nsg29
Nsbsg30
I3
sg31
F24338.5
sbs(g8
S'4'
p4635
tp4636
g0
(g14
g2
Ntp4637
Rp4638
(dp4639
g18
F0.5
sg19
I24337
sg20
g0
(g21
g22
(dp4640
I0
I23345
sI1
I992
stp4641
Rp4642
(dp4643
g19
I24337
sg27
Nsg28
Nsg29
Nsbsg30
I3
sg31
F24338.5
sbs(g8
S'/'
p4644
tp4645
g0
(g14
g2
Ntp4646
Rp4647
(dp4648
g18
F0.5
sg19
I24337
sg20
g0
(g21
g22
(dp4649
I0
I22201
sI1
I2136
stp4650
Rp4651
(dp4652
g19
I24337
sg27
Nsg28
Nsg29
Nsbsg30
I3
sg31
F24338.5
sbs(g9
S'\xc8\xa5'
p4653
tp4654
g0
(g14
g2
Ntp4655
Rp4656
(dp4657
g18
F0.5
sg19
I1422
sg20
g0
(g21
g22
(dp4658
I0
I1314
sI1
I108
stp4659
Rp4660
(dp4661
g19
I1422
sg27
Nsg28
Nsg29
Nsbsg30
I3
sg31
F1423.5
sbs(g8
S'engineering'
p4662
tp4663
g0
(g14
g2
Ntp4664
Rp4665
(dp4666
g18
F0.5
sg19
I24337
sg20
g0
(g21
g22
(dp4667
I0
I22717
sI1
I1620
stp4668
Rp4669
(dp4670
g19
I24337
sg27
Nsg28
Nsg29
Nsbsg30
I3
sg31
F24338.5
sbs(g8
S'&'
p4671
tp4672
g0
(g14
g2
Ntp4673
Rp4674
(dp4675
g18
F0.5
sg19
I24337
sg20
g0
(g21
g22
(dp4676
I0
I23815
sI1
I522
stp4677
Rp4678
(dp4679
g19
I24337
sg27
Nsg28
Nsg29
Nsbsg30
I3
sg31
F24338.5
sbs(g8
S'\xbd\xf1\xc4\xea'
p4680
tp4681
g0
(g14
g2
Ntp4682
Rp4683
(dp4684
g18
F0.5
sg19
I24337
sg20
g0
(g21
g22
(dp4685
I0
I19969
sI1
I4368
stp4686
Rp4687
(dp4688
g19
I24337
sg27
Nsg28
Nsg29
Nsbsg30
I3
sg31
F24338.5
sbs(g9
S's'
p4689
tp4690
g0
(g14
g2
Ntp4691
Rp4692
(dp4693
g18
F0.5
sg19
I1422
sg20
g0
(g21
g22
(dp4694
I0
I1355
sI1
I67
stp4695
Rp4696
(dp4697
g19
I1422
sg27
Nsg28
Nsg29
Nsbsg30
I3
sg31
F1423.5
sbs(g9
S'\xd0\xc2\xc8\xcb'
p4698
tp4699
g0
(g14
g2
Ntp4700
Rp4701
(dp4702
g18
F0.5
sg19
I1422
sg20
g0
(g21
g22
(dp4703
I0
I1240
sI1
I182
stp4704
Rp4705
(dp4706
g19
I1422
sg27
Nsg28
Nsg29
Nsbsg30
I3
sg31
F1423.5
sbs(g8
S'\xb1\xcf\xd2\xb5'
p4707
tp4708
g0
(g14
g2
Ntp4709
Rp4710
(dp4711
g18
F0.5
sg19
I24337
sg20
g0
(g21
g22
(dp4712
I0
I21427
sI1
I2910
stp4713
Rp4714
(dp4715
g19
I24337
sg27
Nsg28
Nsg29
Nsbsg30
I3
sg31
F24338.5
sbs(g8
S'\xb6\xc1'
p4716
tp4717
g0
(g14
g2
Ntp4718
Rp4719
(dp4720
g18
F0.5
sg19
I24337
sg20
g0
(g21
g22
(dp4721
I0
I20964
sI1
I3373
stp4722
Rp4723
(dp4724
g19
I24337
sg27
Nsg28
Nsg29
Nsbsg30
I3
sg31
F24338.5
sbs(g9
S'\xb7\xbd\xc3\xe6'
p4725
tp4726
g0
(g14
g2
Ntp4727
Rp4728
(dp4729
g18
F0.5
sg19
I1422
sg20
g0
(g21
g22
(dp4730
I0
I1384
sI1
I38
stp4731
Rp4732
(dp4733
g19
I1422
sg27
Nsg28
Nsg29
Nsbsg30
I3
sg31
F1423.5
sbs(g9
S'\xcb\xb5'
p4734
tp4735
g0
(g14
g2
Ntp4736
Rp4737
(dp4738
g18
F0.5
sg19
I1422
sg20
g0
(g21
g22
(dp4739
I0
I1388
sI1
I34
stp4740
Rp4741
(dp4742
g19
I1422
sg27
Nsg28
Nsg29
Nsbsg30
I3
sg31
F1423.5
sbs(g9
S'\xca\xc7'
p4743
tp4744
g0
(g14
g2
Ntp4745
Rp4746
(dp4747
g18
F0.5
sg19
I1422
sg20
g0
(g21
g22
(dp4748
I0
I886
sI1
I536
stp4749
Rp4750
(dp4751
g19
I1422
sg27
Nsg28
Nsg29
Nsbsg30
I3
sg31
F1423.5
sbs(g9
S'\xc4\xdc'
p4752
tp4753
g0
(g14
g2
Ntp4754
Rp4755
(dp4756
g18
F0.5
sg19
I1422
sg20
g0
(g21
g22
(dp4757
I0
I1272
sI1
I150
stp4758
Rp4759
(dp4760
g19
I1422
sg27
Nsg28
Nsg29
Nsbsg30
I3
sg31
F1423.5
sbs(g8
S'\xb1\xb1\xc3\xc0'
p4761
tp4762
g0
(g14
g2
Ntp4763
Rp4764
(dp4765
g18
F0.5
sg19
I24337
sg20
g0
(g21
g22
(dp4766
I0
I23150
sI1
I1187
stp4767
Rp4768
(dp4769
g19
I24337
sg27
Nsg28
Nsg29
Nsbsg30
I3
sg31
F24338.5
sbs(g8
S'\xb2\xbb\xb4\xed'
p4770
tp4771
g0
(g14
g2
Ntp4772
Rp4773
(dp4774
g18
F0.5
sg19
I24337
sg20
g0
(g21
g22
(dp4775
I0
I23357
sI1
I980
stp4776
Rp4777
(dp4778
g19
I24337
sg27
Nsg28
Nsg29
Nsbsg30
I3
sg31
F24338.5
sbs(g9
S']'
p4779
tp4780
g0
(g14
g2
Ntp4781
Rp4782
(dp4783
g18
F0.5
sg19
I1422
sg20
g0
(g21
g22
(dp4784
I0
I1332
sI1
I90
stp4785
Rp4786
(dp4787
g19
I1422
sg27
Nsg28
Nsg29
Nsbsg30
I3
sg31
F1423.5
sbs(g9
S'\xb1\xa8'
p4788
tp4789
g0
(g14
g2
Ntp4790
Rp4791
(dp4792
g18
F0.5
sg19
I1422
sg20
g0
(g21
g22
(dp4793
I0
I1370
sI1
I52
stp4794
Rp4795
(dp4796
g19
I1422
sg27
Nsg28
Nsg29
Nsbsg30
I3
sg31
F1423.5
sbs(g8
S'\xb5\xd8\xc0\xef'
p4797
tp4798
g0
(g14
g2
Ntp4799
Rp4800
(dp4801
g18
F0.5
sg19
I24337
sg20
g0
(g21
g22
(dp4802
I0
I23582
sI1
I755
stp4803
Rp4804
(dp4805
g19
I24337
sg27
Nsg28
Nsg29
Nsbsg30
I3
sg31
F24338.5
sbs(g9
S','
p4806
tp4807
g0
(g14
g2
Ntp4808
Rp4809
(dp4810
g18
F0.5
sg19
I1422
sg20
g0
(g21
g22
(dp4811
I0
I1236
sI1
I186
stp4812
Rp4813
(dp4814
g19
I1422
sg27
Nsg28
Nsg29
Nsbsg30
I3
sg31
F1423.5
sbs(g8
S'\xcf\xeb'
p4815
tp4816
g0
(g14
g2
Ntp4817
Rp4818
(dp4819
g18
F0.5
sg19
I24337
sg20
g0
(g21
g22
(dp4820
I0
I18393
sI1
I5944
stp4821
Rp4822
(dp4823
g19
I24337
sg27
Nsg28
Nsg29
Nsbsg30
I3
sg31
F24338.5
sbs(g8
S'\xcc\xfb\xd7\xd3'
p4824
tp4825
g0
(g14
g2
Ntp4826
Rp4827
(dp4828
g18
F0.5
sg19
I24337
sg20
g0
(g21
g22
(dp4829
I0
I23156
sI1
I1181
stp4830
Rp4831
(dp4832
g19
I24337
sg27
Nsg28
Nsg29
Nsbsg30
I3
sg31
F24338.5
sbs(g8
S'b'
p4833
tp4834
g0
(g14
g2
Ntp4835
Rp4836
(dp4837
g18
F0.5
sg19
I24337
sg20
g0
(g21
g22
(dp4838
I0
I24159
sI1
I178
stp4839
Rp4840
(dp4841
g19
I24337
sg27
Nsg28
Nsg29
Nsbsg30
I3
sg31
F24338.5
sbs(g8
S'fall'
p4842
tp4843
g0
(g14
g2
Ntp4844
Rp4845
(dp4846
g18
F0.5
sg19
I24337
sg20
g0
(g21
g22
(dp4847
I0
I22315
sI1
I2022
stp4848
Rp4849
(dp4850
g19
I24337
sg27
Nsg28
Nsg29
Nsbsg30
I3
sg31
F24338.5
sbs(g9
S'\xd5\xe2'
p4851
tp4852
g0
(g14
g2
Ntp4853
Rp4854
(dp4855
g18
F0.5
sg19
I1422
sg20
g0
(g21
g22
(dp4856
I0
I1376
sI1
I46
stp4857
Rp4858
(dp4859
g19
I1422
sg27
Nsg28
Nsg29
Nsbsg30
I3
sg31
F1423.5
sbs(g8
S'\xbd\xe9\xc9\xdc'
p4860
tp4861
g0
(g14
g2
Ntp4862
Rp4863
(dp4864
g18
F0.5
sg19
I24337
sg20
g0
(g21
g22
(dp4865
I0
I22161
sI1
I2176
stp4866
Rp4867
(dp4868
g19
I24337
sg27
Nsg28
Nsg29
Nsbsg30
I3
sg31
F24338.5
sbs(g8
S'\xc8\xeb\xd1\xa7'
p4869
tp4870
g0
(g14
g2
Ntp4871
Rp4872
(dp4873
g18
F0.5
sg19
I24337
sg20
g0
(g21
g22
(dp4874
I0
I21375
sI1
I2962
stp4875
Rp4876
(dp4877
g19
I24337
sg27
Nsg28
Nsg29
Nsbsg30
I3
sg31
F24338.5
sbs(g9
S'google'
p4878
tp4879
g0
(g14
g2
Ntp4880
Rp4881
(dp4882
g18
F0.5
sg19
I1422
sg20
g0
(g21
g22
(dp4883
I0
I1378
sI1
I44
stp4884
Rp4885
(dp4886
g19
I1422
sg27
Nsg28
Nsg29
Nsbsg30
I3
sg31
F1423.5
sbs(g8
S'\xd5\xd2'
p4887
tp4888
g0
(g14
g2
Ntp4889
Rp4890
(dp4891
g18
F0.5
sg19
I24337
sg20
g0
(g21
g22
(dp4892
I0
I22072
sI1
I2265
stp4893
Rp4894
(dp4895
g19
I24337
sg27
Nsg28
Nsg29
Nsbsg30
I3
sg31
F24338.5
sbs(g9
S'\xd2\xaa'
p4896
tp4897
g0
(g14
g2
Ntp4898
Rp4899
(dp4900
g18
F0.5
sg19
I1422
sg20
g0
(g21
g22
(dp4901
I0
I1333
sI1
I89
stp4902
Rp4903
(dp4904
g19
I1422
sg27
Nsg28
Nsg29
Nsbsg30
I3
sg31
F1423.5
sbs(g8
S'#'
p4905
tp4906
g0
(g14
g2
Ntp4907
Rp4908
(dp4909
g18
F0.5
sg19
I24337
sg20
g0
(g21
g22
(dp4910
I0
I24221
sI1
I116
stp4911
Rp4912
(dp4913
g19
I24337
sg27
Nsg28
Nsg29
Nsbsg30
I3
sg31
F24338.5
sbs(g8
S'\xc4\xd8'
p4914
tp4915
g0
(g14
g2
Ntp4916
Rp4917
(dp4918
g18
F0.5
sg19
I24337
sg20
g0
(g21
g22
(dp4919
I0
I24025
sI1
I312
stp4920
Rp4921
(dp4922
g19
I24337
sg27
Nsg28
Nsg29
Nsbsg30
I3
sg31
F24338.5
sbs(g9
S'\xc3\xbb'
p4923
tp4924
g0
(g14
g2
Ntp4925
Rp4926
(dp4927
g18
F0.5
sg19
I1422
sg20
g0
(g21
g22
(dp4928
I0
I1377
sI1
I45
stp4929
Rp4930
(dp4931
g19
I1422
sg27
Nsg28
Nsg29
Nsbsg30
I3
sg31
F1423.5
sbs(g8
S'\xd5\xe2\xb8\xf6'
p4932
tp4933
g0
(g14
g2
Ntp4934
Rp4935
(dp4936
g18
F0.5
sg19
I24337
sg20
g0
(g21
g22
(dp4937
I0
I14122
sI1
I10215
stp4938
Rp4939
(dp4940
g19
I24337
sg27
Nsg28
Nsg29
Nsbsg30
I3
sg31
F24338.5
sbs(g9
S'\xb3\xf6\xb9\xfa'
p4941
tp4942
g0
(g14
g2
Ntp4943
Rp4944
(dp4945
g18
F0.5
sg19
I1422
sg20
g0
(g21
g22
(dp4946
I0
I1374
sI1
I48
stp4947
Rp4948
(dp4949
g19
I1422
sg27
Nsg28
Nsg29
Nsbsg30
I3
sg31
F1423.5
sbs(g9
S'\xbe\xcd'
p4950
tp4951
g0
(g14
g2
Ntp4952
Rp4953
(dp4954
g18
F0.5
sg19
I1422
sg20
g0
(g21
g22
(dp4955
I0
I1337
sI1
I85
stp4956
Rp4957
(dp4958
g19
I1422
sg27
Nsg28
Nsg29
Nsbsg30
I3
sg31
F1423.5
sbs(g8
S'\xb6\xab\xce\xf7'
p4959
tp4960
g0
(g14
g2
Ntp4961
Rp4962
(dp4963
g18
F0.5
sg19
I24337
sg20
g0
(g21
g22
(dp4964
I0
I23617
sI1
I720
stp4965
Rp4966
(dp4967
g19
I24337
sg27
Nsg28
Nsg29
Nsbsg30
I3
sg31
F24338.5
sbs(g9
S'\xd5\xfd\xd4\xda'
p4968
tp4969
g0
(g14
g2
Ntp4970
Rp4971
(dp4972
g18
F0.5
sg19
I1422
sg20
g0
(g21
g22
(dp4973
I0
I1359
sI1
I63
stp4974
Rp4975
(dp4976
g19
I1422
sg27
Nsg28
Nsg29
Nsbsg30
I3
sg31
F1423.5
sbs(g8
S'\xd4\xda'
p4977
tp4978
g0
(g14
g2
Ntp4979
Rp4980
(dp4981
g18
F0.5
sg19
I24337
sg20
g0
(g21
g22
(dp4982
I0
I14196
sI1
I10141
stp4983
Rp4984
(dp4985
g19
I24337
sg27
Nsg28
Nsg29
Nsbsg30
I3
sg31
F24338.5
sbs(g9
g1856
tp4986
g0
(g14
g2
Ntp4987
Rp4988
(dp4989
g18
F0.5
sg19
I1422
sg20
g0
(g21
g22
(dp4990
S'25'
p4991
I1
sS'20'
p4992
I1
sS'11'
p4993
I3
sS'10'
p4994
I5
sS'13'
p4995
I3
sS'12'
p4996
I2
sS'15'
p4997
I2
sS'14'
p4998
I1
sS'28'
p4999
I1
sg8
I875
sg1883
I143
sg1884
I138
sg1885
I77
sg1886
I102
sg1887
I22
sg1888
I32
sg1889
I6
sg1048
I8
stp5000
Rp5001
(dp5002
g19
I1422
sg27
Nsg28
Nsg29
Nsbsg30
I32
sg31
F1438.0
sbs(g9
S'\xbf\xb4'
p5003
tp5004
g0
(g14
g2
Ntp5005
Rp5006
(dp5007
g18
F0.5
sg19
I1422
sg20
g0
(g21
g22
(dp5008
I0
I1343
sI1
I79
stp5009
Rp5010
(dp5011
g19
I1422
sg27
Nsg28
Nsg29
Nsbsg30
I3
sg31
F1423.5
sbs(g8
S'redirect'
p5012
tp5013
g0
(g14
g2
Ntp5014
Rp5015
(dp5016
g18
F0.5
sg19
I24337
sg20
g0
(g21
g22
(dp5017
I0
I24245
sI1
I92
stp5018
Rp5019
(dp5020
g19
I24337
sg27
Nsg28
Nsg29
Nsbsg30
I3
sg31
F24338.5
sbs(g9
S'\xd1\xa7\xcf\xb0'
p5021
tp5022
g0
(g14
g2
Ntp5023
Rp5024
(dp5025
g18
F0.5
sg19
I1422
sg20
g0
(g21
g22
(dp5026
I0
I1366
sI1
I56
stp5027
Rp5028
(dp5029
g19
I1422
sg27
Nsg28
Nsg29
Nsbsg30
I3
sg31
F1423.5
sbs(g8
S'\xd0\xbb\xd0\xbb'
p5030
tp5031
g0
(g14
g2
Ntp5032
Rp5033
(dp5034
g18
F0.5
sg19
I24337
sg20
g0
(g21
g22
(dp5035
I0
I23179
sI1
I1158
stp5036
Rp5037
(dp5038
g19
I24337
sg27
Nsg28
Nsg29
Nsbsg30
I3
sg31
F24338.5
sbs(g8
S'\xb4\xf3\xc8\xfd'
p5039
tp5040
g0
(g14
g2
Ntp5041
Rp5042
(dp5043
g18
F0.5
sg19
I24337
sg20
g0
(g21
g22
(dp5044
I0
I22154
sI1
I2183
stp5045
Rp5046
(dp5047
g19
I24337
sg27
Nsg28
Nsg29
Nsbsg30
I3
sg31
F24338.5
sbs(g8
S'\xc3\xc0\xb9\xfa'
p5048
tp5049
g0
(g14
g2
Ntp5050
Rp5051
(dp5052
g18
F0.5
sg19
I24337
sg20
g0
(g21
g22
(dp5053
I0
I18355
sI1
I5982
stp5054
Rp5055
(dp5056
g19
I24337
sg27
Nsg28
Nsg29
Nsbsg30
I3
sg31
F24338.5
sbs(g8
S','
p5057
tp5058
g0
(g14
g2
Ntp5059
Rp5060
(dp5061
g18
F0.5
sg19
I24337
sg20
g0
(g21
g22
(dp5062
I0
I18439
sI1
I5898
stp5063
Rp5064
(dp5065
g19
I24337
sg27
Nsg28
Nsg29
Nsbsg30
I3
sg31
F24338.5
sbs(g9
S'\xd7\xf6'
p5066
tp5067
g0
(g14
g2
Ntp5068
Rp5069
(dp5070
g18
F0.5
sg19
I1422
sg20
g0
(g21
g22
(dp5071
I0
I1368
sI1
I54
stp5072
Rp5073
(dp5074
g19
I1422
sg27
Nsg28
Nsg29
Nsbsg30
I3
sg31
F1423.5
sbs(g8
S'blog'
p5075
tp5076
g0
(g14
g2
Ntp5077
Rp5078
(dp5079
g18
F0.5
sg19
I24337
sg20
g0
(g21
g22
(dp5080
I0
I22456
sI1
I1881
stp5081
Rp5082
(dp5083
g19
I24337
sg27
Nsg28
Nsg29
Nsbsg30
I3
sg31
F24338.5
sbs(g8
S'ptid'
p5084
tp5085
g0
(g14
g2
Ntp5086
Rp5087
(dp5088
g18
F0.5
sg19
I24337
sg20
g0
(g21
g22
(dp5089
I0
I24245
sI1
I92
stp5090
Rp5091
(dp5092
g19
I24337
sg27
Nsg28
Nsg29
Nsbsg30
I3
sg31
F24338.5
sbs(g8
S'\xd5\xe2'
p5093
tp5094
g0
(g14
g2
Ntp5095
Rp5096
(dp5097
g18
F0.5
sg19
I24337
sg20
g0
(g21
g22
(dp5098
I0
I23300
sI1
I1037
stp5099
Rp5100
(dp5101
g19
I24337
sg27
Nsg28
Nsg29
Nsbsg30
I3
sg31
F24338.5
sbs(g9
S'&'
p5102
tp5103
g0
(g14
g2
Ntp5104
Rp5105
(dp5106
g18
F0.5
sg19
I1422
sg20
g0
(g21
g22
(dp5107
I0
I1389
sI1
I33
stp5108
Rp5109
(dp5110
g19
I1422
sg27
Nsg28
Nsg29
Nsbsg30
I3
sg31
F1423.5
sbs(g9
S'\xd3\xda'
p5111
tp5112
g0
(g14
g2
Ntp5113
Rp5114
(dp5115
g18
F0.5
sg19
I1422
sg20
g0
(g21
g22
(dp5116
I0
I1342
sI1
I80
stp5117
Rp5118
(dp5119
g19
I1422
sg27
Nsg28
Nsg29
Nsbsg30
I3
sg31
F1423.5
sbs(g8
S'\xd0\xc5\xcf\xa2'
p5120
tp5121
g0
(g14
g2
Ntp5122
Rp5123
(dp5124
g18
F0.5
sg19
I24337
sg20
g0
(g21
g22
(dp5125
I0
I19282
sI1
I5055
stp5126
Rp5127
(dp5128
g19
I24337
sg27
Nsg28
Nsg29
Nsbsg30
I3
sg31
F24338.5
sbs(g9
S'\xb1\xcf\xd2\xb5'
p5129
tp5130
g0
(g14
g2
Ntp5131
Rp5132
(dp5133
g18
F0.5
sg19
I1422
sg20
g0
(g21
g22
(dp5134
I0
I1314
sI1
I108
stp5135
Rp5136
(dp5137
g19
I1422
sg27
Nsg28
Nsg29
Nsbsg30
I3
sg31
F1423.5
sbs(g9
S'\xc7\xef\xbc\xbe'
p5138
tp5139
g0
(g14
g2
Ntp5140
Rp5141
(dp5142
g18
F0.5
sg19
I1422
sg20
g0
(g21
g22
(dp5143
I0
I1349
sI1
I73
stp5144
Rp5145
(dp5146
g19
I1422
sg27
Nsg28
Nsg29
Nsbsg30
I3
sg31
F1423.5
sbs(g9
S'\xb1\xb1\xc3\xc0'
p5147
tp5148
g0
(g14
g2
Ntp5149
Rp5150
(dp5151
g18
F0.5
sg19
I1422
sg20
g0
(g21
g22
(dp5152
I0
I1381
sI1
I41
stp5153
Rp5154
(dp5155
g19
I1422
sg27
Nsg28
Nsg29
Nsbsg30
I3
sg31
F1423.5
sbs(g8
S']'
p5156
tp5157
g0
(g14
g2
Ntp5158
Rp5159
(dp5160
g18
F0.5
sg19
I24337
sg20
g0
(g21
g22
(dp5161
I0
I23254
sI1
I1083
stp5162
Rp5163
(dp5164
g19
I24337
sg27
Nsg28
Nsg29
Nsbsg30
I3
sg31
F24338.5
sbs(g8
g3199
tp5165
g0
(g14
g2
Ntp5166
Rp5167
(dp5168
g18
F0.5
sg19
I24337
sg20
g0
(g21
g22
(dp5169
I0
I24337
stp5170
Rp5171
(dp5172
g19
I24337
sg27
Nsg28
Nsg29
Nsbsg30
I2
sg31
F24338.0
sbs(g8
S'\xd5\xd2\xb5\xbd'
p5173
tp5174
g0
(g14
g2
Ntp5175
Rp5176
(dp5177
g18
F0.5
sg19
I24337
sg20
g0
(g21
g22
(dp5178
I0
I22529
sI1
I1808
stp5179
Rp5180
(dp5181
g19
I24337
sg27
Nsg28
Nsg29
Nsbsg30
I3
sg31
F24338.5
sbssS'_label_probdist'
p5182
g0
(g14
g2
Ntp5183
Rp5184
(dp5185
g18
F0.5
sg19
I25759
sg20
g0
(g21
g22
(dp5186
g8
I24337
sg9
I1422
stp5187
Rp5188
(dp5189
g19
I25759
sg27
Nsg28
(lp5190
(g8
I24337
tp5191
a(g9
I1422
tp5192
asg29
Nsbsg30
I2
sg31
F25760.0
sbsb.